ARM GAS  C:\Users\GKQ\AppData\Local\Temp\ccBmEnAf.s 			page 1


   1              		.cpu cortex-m3
   2              		.eabi_attribute 20, 1
   3              		.eabi_attribute 21, 1
   4              		.eabi_attribute 23, 3
   5              		.eabi_attribute 24, 1
   6              		.eabi_attribute 25, 1
   7              		.eabi_attribute 26, 1
   8              		.eabi_attribute 30, 1
   9              		.eabi_attribute 34, 1
  10              		.eabi_attribute 18, 4
  11              		.file	"cpuport.c"
  12              		.text
  13              	.Ltext0:
  14              		.cfi_sections	.debug_frame
  15              		.section	.rodata.bus_fault_track.str1.4,"aMS",%progbits,1
  16              		.align	2
  17              	.LC0:
  18 0000 62757320 		.ascii	"bus fault:\012\000"
  18      6661756C 
  18      743A0A00 
  19              		.align	2
  20              	.LC1:
  21 000c 5343425F 		.ascii	"SCB_CFSR_BFSR:0x%02X \000"
  21      43465352 
  21      5F424653 
  21      523A3078 
  21      25303258 
  22 0022 0000     		.align	2
  23              	.LC2:
  24 0024 49425553 		.ascii	"IBUSERR \000"
  24      45525220 
  24      00
  25 002d 000000   		.align	2
  26              	.LC3:
  27 0030 50524543 		.ascii	"PRECISERR \000"
  27      49534552 
  27      522000
  28 003b 00       		.align	2
  29              	.LC4:
  30 003c 494D5052 		.ascii	"IMPRECISERR \000"
  30      45434953 
  30      45525220 
  30      00
  31 0049 000000   		.align	2
  32              	.LC5:
  33 004c 554E5354 		.ascii	"UNSTKERR \000"
  33      4B455252 
  33      2000
  34 0056 0000     		.align	2
  35              	.LC6:
  36 0058 53544B45 		.ascii	"STKERR \000"
  36      52522000 
  37              		.align	2
  38              	.LC7:
  39 0060 5343422D 		.ascii	"SCB->BFAR:%08X\012\000"
  39      3E424641 
  39      523A2530 
ARM GAS  C:\Users\GKQ\AppData\Local\Temp\ccBmEnAf.s 			page 2


  39      38580A00 
  40              		.align	2
  41              	.LC8:
  42 0070 0A00     		.ascii	"\012\000"
  43              		.section	.text.bus_fault_track,"ax",%progbits
  44              		.align	1
  45              		.arch armv7-m
  46              		.syntax unified
  47              		.thumb
  48              		.thumb_func
  49              		.fpu softvfp
  51              	bus_fault_track:
  52              	.LFB18:
  53              		.file 1 "Middlewares/Third_Party/RealThread_RTOS_RT-Thread/libcpu/arm/cortex-m3/cpuport.c"
   1:Middlewares/Third_Party/RealThread_RTOS_RT-Thread/libcpu/arm/cortex-m3/cpuport.c **** /*
   2:Middlewares/Third_Party/RealThread_RTOS_RT-Thread/libcpu/arm/cortex-m3/cpuport.c ****  * Copyright (c) 2006-2018, RT-Thread Development Team
   3:Middlewares/Third_Party/RealThread_RTOS_RT-Thread/libcpu/arm/cortex-m3/cpuport.c ****  *
   4:Middlewares/Third_Party/RealThread_RTOS_RT-Thread/libcpu/arm/cortex-m3/cpuport.c ****  * SPDX-License-Identifier: Apache-2.0
   5:Middlewares/Third_Party/RealThread_RTOS_RT-Thread/libcpu/arm/cortex-m3/cpuport.c ****  *
   6:Middlewares/Third_Party/RealThread_RTOS_RT-Thread/libcpu/arm/cortex-m3/cpuport.c ****  * Change Logs:
   7:Middlewares/Third_Party/RealThread_RTOS_RT-Thread/libcpu/arm/cortex-m3/cpuport.c ****  * Date         Author      Notes
   8:Middlewares/Third_Party/RealThread_RTOS_RT-Thread/libcpu/arm/cortex-m3/cpuport.c ****  * 2009-01-05   Bernard     first version
   9:Middlewares/Third_Party/RealThread_RTOS_RT-Thread/libcpu/arm/cortex-m3/cpuport.c ****  * 2011-02-14   onelife     Modify for EFM32
  10:Middlewares/Third_Party/RealThread_RTOS_RT-Thread/libcpu/arm/cortex-m3/cpuport.c ****  * 2011-06-17   onelife     Merge all of the C source code into cpuport.c
  11:Middlewares/Third_Party/RealThread_RTOS_RT-Thread/libcpu/arm/cortex-m3/cpuport.c ****  * 2012-12-23   aozima      stack addr align to 8byte.
  12:Middlewares/Third_Party/RealThread_RTOS_RT-Thread/libcpu/arm/cortex-m3/cpuport.c ****  * 2012-12-29   Bernard     Add exception hook.
  13:Middlewares/Third_Party/RealThread_RTOS_RT-Thread/libcpu/arm/cortex-m3/cpuport.c ****  * 2013-07-09   aozima      enhancement hard fault exception handler.
  14:Middlewares/Third_Party/RealThread_RTOS_RT-Thread/libcpu/arm/cortex-m3/cpuport.c ****  */
  15:Middlewares/Third_Party/RealThread_RTOS_RT-Thread/libcpu/arm/cortex-m3/cpuport.c **** 
  16:Middlewares/Third_Party/RealThread_RTOS_RT-Thread/libcpu/arm/cortex-m3/cpuport.c **** #include <rtthread.h>
  17:Middlewares/Third_Party/RealThread_RTOS_RT-Thread/libcpu/arm/cortex-m3/cpuport.c **** 
  18:Middlewares/Third_Party/RealThread_RTOS_RT-Thread/libcpu/arm/cortex-m3/cpuport.c **** struct exception_stack_frame
  19:Middlewares/Third_Party/RealThread_RTOS_RT-Thread/libcpu/arm/cortex-m3/cpuport.c **** {
  20:Middlewares/Third_Party/RealThread_RTOS_RT-Thread/libcpu/arm/cortex-m3/cpuport.c ****     rt_uint32_t r0;
  21:Middlewares/Third_Party/RealThread_RTOS_RT-Thread/libcpu/arm/cortex-m3/cpuport.c ****     rt_uint32_t r1;
  22:Middlewares/Third_Party/RealThread_RTOS_RT-Thread/libcpu/arm/cortex-m3/cpuport.c ****     rt_uint32_t r2;
  23:Middlewares/Third_Party/RealThread_RTOS_RT-Thread/libcpu/arm/cortex-m3/cpuport.c ****     rt_uint32_t r3;
  24:Middlewares/Third_Party/RealThread_RTOS_RT-Thread/libcpu/arm/cortex-m3/cpuport.c ****     rt_uint32_t r12;
  25:Middlewares/Third_Party/RealThread_RTOS_RT-Thread/libcpu/arm/cortex-m3/cpuport.c ****     rt_uint32_t lr;
  26:Middlewares/Third_Party/RealThread_RTOS_RT-Thread/libcpu/arm/cortex-m3/cpuport.c ****     rt_uint32_t pc;
  27:Middlewares/Third_Party/RealThread_RTOS_RT-Thread/libcpu/arm/cortex-m3/cpuport.c ****     rt_uint32_t psr;
  28:Middlewares/Third_Party/RealThread_RTOS_RT-Thread/libcpu/arm/cortex-m3/cpuport.c **** };
  29:Middlewares/Third_Party/RealThread_RTOS_RT-Thread/libcpu/arm/cortex-m3/cpuport.c **** 
  30:Middlewares/Third_Party/RealThread_RTOS_RT-Thread/libcpu/arm/cortex-m3/cpuport.c **** struct stack_frame
  31:Middlewares/Third_Party/RealThread_RTOS_RT-Thread/libcpu/arm/cortex-m3/cpuport.c **** {
  32:Middlewares/Third_Party/RealThread_RTOS_RT-Thread/libcpu/arm/cortex-m3/cpuport.c ****     /* r4 ~ r11 register */
  33:Middlewares/Third_Party/RealThread_RTOS_RT-Thread/libcpu/arm/cortex-m3/cpuport.c ****     rt_uint32_t r4;
  34:Middlewares/Third_Party/RealThread_RTOS_RT-Thread/libcpu/arm/cortex-m3/cpuport.c ****     rt_uint32_t r5;
  35:Middlewares/Third_Party/RealThread_RTOS_RT-Thread/libcpu/arm/cortex-m3/cpuport.c ****     rt_uint32_t r6;
  36:Middlewares/Third_Party/RealThread_RTOS_RT-Thread/libcpu/arm/cortex-m3/cpuport.c ****     rt_uint32_t r7;
  37:Middlewares/Third_Party/RealThread_RTOS_RT-Thread/libcpu/arm/cortex-m3/cpuport.c ****     rt_uint32_t r8;
  38:Middlewares/Third_Party/RealThread_RTOS_RT-Thread/libcpu/arm/cortex-m3/cpuport.c ****     rt_uint32_t r9;
  39:Middlewares/Third_Party/RealThread_RTOS_RT-Thread/libcpu/arm/cortex-m3/cpuport.c ****     rt_uint32_t r10;
  40:Middlewares/Third_Party/RealThread_RTOS_RT-Thread/libcpu/arm/cortex-m3/cpuport.c ****     rt_uint32_t r11;
  41:Middlewares/Third_Party/RealThread_RTOS_RT-Thread/libcpu/arm/cortex-m3/cpuport.c **** 
  42:Middlewares/Third_Party/RealThread_RTOS_RT-Thread/libcpu/arm/cortex-m3/cpuport.c ****     struct exception_stack_frame exception_stack_frame;
  43:Middlewares/Third_Party/RealThread_RTOS_RT-Thread/libcpu/arm/cortex-m3/cpuport.c **** };
ARM GAS  C:\Users\GKQ\AppData\Local\Temp\ccBmEnAf.s 			page 3


  44:Middlewares/Third_Party/RealThread_RTOS_RT-Thread/libcpu/arm/cortex-m3/cpuport.c **** 
  45:Middlewares/Third_Party/RealThread_RTOS_RT-Thread/libcpu/arm/cortex-m3/cpuport.c **** /* flag in interrupt handling */
  46:Middlewares/Third_Party/RealThread_RTOS_RT-Thread/libcpu/arm/cortex-m3/cpuport.c **** rt_uint32_t rt_interrupt_from_thread, rt_interrupt_to_thread;
  47:Middlewares/Third_Party/RealThread_RTOS_RT-Thread/libcpu/arm/cortex-m3/cpuport.c **** rt_uint32_t rt_thread_switch_interrupt_flag;
  48:Middlewares/Third_Party/RealThread_RTOS_RT-Thread/libcpu/arm/cortex-m3/cpuport.c **** /* exception hook */
  49:Middlewares/Third_Party/RealThread_RTOS_RT-Thread/libcpu/arm/cortex-m3/cpuport.c **** static rt_err_t (*rt_exception_hook)(void *context) = RT_NULL;
  50:Middlewares/Third_Party/RealThread_RTOS_RT-Thread/libcpu/arm/cortex-m3/cpuport.c **** 
  51:Middlewares/Third_Party/RealThread_RTOS_RT-Thread/libcpu/arm/cortex-m3/cpuport.c **** /**
  52:Middlewares/Third_Party/RealThread_RTOS_RT-Thread/libcpu/arm/cortex-m3/cpuport.c ****  * This function will initialize thread stack
  53:Middlewares/Third_Party/RealThread_RTOS_RT-Thread/libcpu/arm/cortex-m3/cpuport.c ****  *
  54:Middlewares/Third_Party/RealThread_RTOS_RT-Thread/libcpu/arm/cortex-m3/cpuport.c ****  * @param tentry the entry of thread
  55:Middlewares/Third_Party/RealThread_RTOS_RT-Thread/libcpu/arm/cortex-m3/cpuport.c ****  * @param parameter the parameter of entry
  56:Middlewares/Third_Party/RealThread_RTOS_RT-Thread/libcpu/arm/cortex-m3/cpuport.c ****  * @param stack_addr the beginning stack address
  57:Middlewares/Third_Party/RealThread_RTOS_RT-Thread/libcpu/arm/cortex-m3/cpuport.c ****  * @param texit the function will be called when thread exit
  58:Middlewares/Third_Party/RealThread_RTOS_RT-Thread/libcpu/arm/cortex-m3/cpuport.c ****  *
  59:Middlewares/Third_Party/RealThread_RTOS_RT-Thread/libcpu/arm/cortex-m3/cpuport.c ****  * @return stack address
  60:Middlewares/Third_Party/RealThread_RTOS_RT-Thread/libcpu/arm/cortex-m3/cpuport.c ****  */
  61:Middlewares/Third_Party/RealThread_RTOS_RT-Thread/libcpu/arm/cortex-m3/cpuport.c **** rt_uint8_t *rt_hw_stack_init(void       *tentry,
  62:Middlewares/Third_Party/RealThread_RTOS_RT-Thread/libcpu/arm/cortex-m3/cpuport.c ****                              void       *parameter,
  63:Middlewares/Third_Party/RealThread_RTOS_RT-Thread/libcpu/arm/cortex-m3/cpuport.c ****                              rt_uint8_t *stack_addr,
  64:Middlewares/Third_Party/RealThread_RTOS_RT-Thread/libcpu/arm/cortex-m3/cpuport.c ****                              void       *texit)
  65:Middlewares/Third_Party/RealThread_RTOS_RT-Thread/libcpu/arm/cortex-m3/cpuport.c **** {
  66:Middlewares/Third_Party/RealThread_RTOS_RT-Thread/libcpu/arm/cortex-m3/cpuport.c ****     struct stack_frame *stack_frame;
  67:Middlewares/Third_Party/RealThread_RTOS_RT-Thread/libcpu/arm/cortex-m3/cpuport.c ****     rt_uint8_t         *stk;
  68:Middlewares/Third_Party/RealThread_RTOS_RT-Thread/libcpu/arm/cortex-m3/cpuport.c ****     unsigned long       i;
  69:Middlewares/Third_Party/RealThread_RTOS_RT-Thread/libcpu/arm/cortex-m3/cpuport.c **** 
  70:Middlewares/Third_Party/RealThread_RTOS_RT-Thread/libcpu/arm/cortex-m3/cpuport.c ****     stk  = stack_addr + sizeof(rt_uint32_t);
  71:Middlewares/Third_Party/RealThread_RTOS_RT-Thread/libcpu/arm/cortex-m3/cpuport.c ****     stk  = (rt_uint8_t *)RT_ALIGN_DOWN((rt_uint32_t)stk, 8);
  72:Middlewares/Third_Party/RealThread_RTOS_RT-Thread/libcpu/arm/cortex-m3/cpuport.c ****     stk -= sizeof(struct stack_frame);
  73:Middlewares/Third_Party/RealThread_RTOS_RT-Thread/libcpu/arm/cortex-m3/cpuport.c **** 
  74:Middlewares/Third_Party/RealThread_RTOS_RT-Thread/libcpu/arm/cortex-m3/cpuport.c ****     stack_frame = (struct stack_frame *)stk;
  75:Middlewares/Third_Party/RealThread_RTOS_RT-Thread/libcpu/arm/cortex-m3/cpuport.c **** 
  76:Middlewares/Third_Party/RealThread_RTOS_RT-Thread/libcpu/arm/cortex-m3/cpuport.c ****     /* init all register */
  77:Middlewares/Third_Party/RealThread_RTOS_RT-Thread/libcpu/arm/cortex-m3/cpuport.c ****     for (i = 0; i < sizeof(struct stack_frame) / sizeof(rt_uint32_t); i ++)
  78:Middlewares/Third_Party/RealThread_RTOS_RT-Thread/libcpu/arm/cortex-m3/cpuport.c ****     {
  79:Middlewares/Third_Party/RealThread_RTOS_RT-Thread/libcpu/arm/cortex-m3/cpuport.c ****         ((rt_uint32_t *)stack_frame)[i] = 0xdeadbeef;
  80:Middlewares/Third_Party/RealThread_RTOS_RT-Thread/libcpu/arm/cortex-m3/cpuport.c ****     }
  81:Middlewares/Third_Party/RealThread_RTOS_RT-Thread/libcpu/arm/cortex-m3/cpuport.c **** 
  82:Middlewares/Third_Party/RealThread_RTOS_RT-Thread/libcpu/arm/cortex-m3/cpuport.c ****     stack_frame->exception_stack_frame.r0  = (unsigned long)parameter; /* r0 : argument */
  83:Middlewares/Third_Party/RealThread_RTOS_RT-Thread/libcpu/arm/cortex-m3/cpuport.c ****     stack_frame->exception_stack_frame.r1  = 0;                        /* r1 */
  84:Middlewares/Third_Party/RealThread_RTOS_RT-Thread/libcpu/arm/cortex-m3/cpuport.c ****     stack_frame->exception_stack_frame.r2  = 0;                        /* r2 */
  85:Middlewares/Third_Party/RealThread_RTOS_RT-Thread/libcpu/arm/cortex-m3/cpuport.c ****     stack_frame->exception_stack_frame.r3  = 0;                        /* r3 */
  86:Middlewares/Third_Party/RealThread_RTOS_RT-Thread/libcpu/arm/cortex-m3/cpuport.c ****     stack_frame->exception_stack_frame.r12 = 0;                        /* r12 */
  87:Middlewares/Third_Party/RealThread_RTOS_RT-Thread/libcpu/arm/cortex-m3/cpuport.c ****     stack_frame->exception_stack_frame.lr  = (unsigned long)texit;     /* lr */
  88:Middlewares/Third_Party/RealThread_RTOS_RT-Thread/libcpu/arm/cortex-m3/cpuport.c ****     stack_frame->exception_stack_frame.pc  = (unsigned long)tentry;    /* entry point, pc */
  89:Middlewares/Third_Party/RealThread_RTOS_RT-Thread/libcpu/arm/cortex-m3/cpuport.c ****     stack_frame->exception_stack_frame.psr = 0x01000000L;              /* PSR */
  90:Middlewares/Third_Party/RealThread_RTOS_RT-Thread/libcpu/arm/cortex-m3/cpuport.c **** 
  91:Middlewares/Third_Party/RealThread_RTOS_RT-Thread/libcpu/arm/cortex-m3/cpuport.c ****     /* return task's current stack address */
  92:Middlewares/Third_Party/RealThread_RTOS_RT-Thread/libcpu/arm/cortex-m3/cpuport.c ****     return stk;
  93:Middlewares/Third_Party/RealThread_RTOS_RT-Thread/libcpu/arm/cortex-m3/cpuport.c **** }
  94:Middlewares/Third_Party/RealThread_RTOS_RT-Thread/libcpu/arm/cortex-m3/cpuport.c **** 
  95:Middlewares/Third_Party/RealThread_RTOS_RT-Thread/libcpu/arm/cortex-m3/cpuport.c **** /**
  96:Middlewares/Third_Party/RealThread_RTOS_RT-Thread/libcpu/arm/cortex-m3/cpuport.c ****  * This function set the hook, which is invoked on fault exception handling.
  97:Middlewares/Third_Party/RealThread_RTOS_RT-Thread/libcpu/arm/cortex-m3/cpuport.c ****  *
  98:Middlewares/Third_Party/RealThread_RTOS_RT-Thread/libcpu/arm/cortex-m3/cpuport.c ****  * @param exception_handle the exception handling hook function.
  99:Middlewares/Third_Party/RealThread_RTOS_RT-Thread/libcpu/arm/cortex-m3/cpuport.c ****  */
 100:Middlewares/Third_Party/RealThread_RTOS_RT-Thread/libcpu/arm/cortex-m3/cpuport.c **** void rt_hw_exception_install(rt_err_t (*exception_handle)(void* context))
ARM GAS  C:\Users\GKQ\AppData\Local\Temp\ccBmEnAf.s 			page 4


 101:Middlewares/Third_Party/RealThread_RTOS_RT-Thread/libcpu/arm/cortex-m3/cpuport.c **** {
 102:Middlewares/Third_Party/RealThread_RTOS_RT-Thread/libcpu/arm/cortex-m3/cpuport.c ****     rt_exception_hook = exception_handle;
 103:Middlewares/Third_Party/RealThread_RTOS_RT-Thread/libcpu/arm/cortex-m3/cpuport.c **** }
 104:Middlewares/Third_Party/RealThread_RTOS_RT-Thread/libcpu/arm/cortex-m3/cpuport.c **** 
 105:Middlewares/Third_Party/RealThread_RTOS_RT-Thread/libcpu/arm/cortex-m3/cpuport.c **** #define SCB_CFSR        (*(volatile const unsigned *)0xE000ED28) /* Configurable Fault Status Regis
 106:Middlewares/Third_Party/RealThread_RTOS_RT-Thread/libcpu/arm/cortex-m3/cpuport.c **** #define SCB_HFSR        (*(volatile const unsigned *)0xE000ED2C) /* HardFault Status Register */
 107:Middlewares/Third_Party/RealThread_RTOS_RT-Thread/libcpu/arm/cortex-m3/cpuport.c **** #define SCB_MMAR        (*(volatile const unsigned *)0xE000ED34) /* MemManage Fault Address registe
 108:Middlewares/Third_Party/RealThread_RTOS_RT-Thread/libcpu/arm/cortex-m3/cpuport.c **** #define SCB_BFAR        (*(volatile const unsigned *)0xE000ED38) /* Bus Fault Address Register */
 109:Middlewares/Third_Party/RealThread_RTOS_RT-Thread/libcpu/arm/cortex-m3/cpuport.c **** #define SCB_AIRCR       (*(volatile unsigned long *)0xE000ED0C)  /* Reset control Address Register 
 110:Middlewares/Third_Party/RealThread_RTOS_RT-Thread/libcpu/arm/cortex-m3/cpuport.c **** #define SCB_RESET_VALUE 0x05FA0004                               /* Reset value, write to SCB_AIRCR
 111:Middlewares/Third_Party/RealThread_RTOS_RT-Thread/libcpu/arm/cortex-m3/cpuport.c **** 
 112:Middlewares/Third_Party/RealThread_RTOS_RT-Thread/libcpu/arm/cortex-m3/cpuport.c **** #define SCB_CFSR_MFSR   (*(volatile const unsigned char*)0xE000ED28)  /* Memory-management Fault St
 113:Middlewares/Third_Party/RealThread_RTOS_RT-Thread/libcpu/arm/cortex-m3/cpuport.c **** #define SCB_CFSR_BFSR   (*(volatile const unsigned char*)0xE000ED29)  /* Bus Fault Status Register 
 114:Middlewares/Third_Party/RealThread_RTOS_RT-Thread/libcpu/arm/cortex-m3/cpuport.c **** #define SCB_CFSR_UFSR   (*(volatile const unsigned short*)0xE000ED2A) /* Usage Fault Status Registe
 115:Middlewares/Third_Party/RealThread_RTOS_RT-Thread/libcpu/arm/cortex-m3/cpuport.c **** 
 116:Middlewares/Third_Party/RealThread_RTOS_RT-Thread/libcpu/arm/cortex-m3/cpuport.c **** #ifdef RT_USING_FINSH
 117:Middlewares/Third_Party/RealThread_RTOS_RT-Thread/libcpu/arm/cortex-m3/cpuport.c **** static void usage_fault_track(void)
 118:Middlewares/Third_Party/RealThread_RTOS_RT-Thread/libcpu/arm/cortex-m3/cpuport.c **** {
 119:Middlewares/Third_Party/RealThread_RTOS_RT-Thread/libcpu/arm/cortex-m3/cpuport.c ****     rt_kprintf("usage fault:\n");
 120:Middlewares/Third_Party/RealThread_RTOS_RT-Thread/libcpu/arm/cortex-m3/cpuport.c ****     rt_kprintf("SCB_CFSR_UFSR:0x%02X ", SCB_CFSR_UFSR);
 121:Middlewares/Third_Party/RealThread_RTOS_RT-Thread/libcpu/arm/cortex-m3/cpuport.c **** 
 122:Middlewares/Third_Party/RealThread_RTOS_RT-Thread/libcpu/arm/cortex-m3/cpuport.c ****     if(SCB_CFSR_UFSR & (1<<0))
 123:Middlewares/Third_Party/RealThread_RTOS_RT-Thread/libcpu/arm/cortex-m3/cpuport.c ****     {
 124:Middlewares/Third_Party/RealThread_RTOS_RT-Thread/libcpu/arm/cortex-m3/cpuport.c ****         /* [0]:UNDEFINSTR */
 125:Middlewares/Third_Party/RealThread_RTOS_RT-Thread/libcpu/arm/cortex-m3/cpuport.c ****         rt_kprintf("UNDEFINSTR ");
 126:Middlewares/Third_Party/RealThread_RTOS_RT-Thread/libcpu/arm/cortex-m3/cpuport.c ****     }
 127:Middlewares/Third_Party/RealThread_RTOS_RT-Thread/libcpu/arm/cortex-m3/cpuport.c **** 
 128:Middlewares/Third_Party/RealThread_RTOS_RT-Thread/libcpu/arm/cortex-m3/cpuport.c ****     if(SCB_CFSR_UFSR & (1<<1))
 129:Middlewares/Third_Party/RealThread_RTOS_RT-Thread/libcpu/arm/cortex-m3/cpuport.c ****     {
 130:Middlewares/Third_Party/RealThread_RTOS_RT-Thread/libcpu/arm/cortex-m3/cpuport.c ****         /* [1]:INVSTATE */
 131:Middlewares/Third_Party/RealThread_RTOS_RT-Thread/libcpu/arm/cortex-m3/cpuport.c ****         rt_kprintf("INVSTATE ");
 132:Middlewares/Third_Party/RealThread_RTOS_RT-Thread/libcpu/arm/cortex-m3/cpuport.c ****     }
 133:Middlewares/Third_Party/RealThread_RTOS_RT-Thread/libcpu/arm/cortex-m3/cpuport.c **** 
 134:Middlewares/Third_Party/RealThread_RTOS_RT-Thread/libcpu/arm/cortex-m3/cpuport.c ****     if(SCB_CFSR_UFSR & (1<<2))
 135:Middlewares/Third_Party/RealThread_RTOS_RT-Thread/libcpu/arm/cortex-m3/cpuport.c ****     {
 136:Middlewares/Third_Party/RealThread_RTOS_RT-Thread/libcpu/arm/cortex-m3/cpuport.c ****         /* [2]:INVPC */
 137:Middlewares/Third_Party/RealThread_RTOS_RT-Thread/libcpu/arm/cortex-m3/cpuport.c ****         rt_kprintf("INVPC ");
 138:Middlewares/Third_Party/RealThread_RTOS_RT-Thread/libcpu/arm/cortex-m3/cpuport.c ****     }
 139:Middlewares/Third_Party/RealThread_RTOS_RT-Thread/libcpu/arm/cortex-m3/cpuport.c **** 
 140:Middlewares/Third_Party/RealThread_RTOS_RT-Thread/libcpu/arm/cortex-m3/cpuport.c ****     if(SCB_CFSR_UFSR & (1<<3))
 141:Middlewares/Third_Party/RealThread_RTOS_RT-Thread/libcpu/arm/cortex-m3/cpuport.c ****     {
 142:Middlewares/Third_Party/RealThread_RTOS_RT-Thread/libcpu/arm/cortex-m3/cpuport.c ****         /* [3]:NOCP */
 143:Middlewares/Third_Party/RealThread_RTOS_RT-Thread/libcpu/arm/cortex-m3/cpuport.c ****         rt_kprintf("NOCP ");
 144:Middlewares/Third_Party/RealThread_RTOS_RT-Thread/libcpu/arm/cortex-m3/cpuport.c ****     }
 145:Middlewares/Third_Party/RealThread_RTOS_RT-Thread/libcpu/arm/cortex-m3/cpuport.c **** 
 146:Middlewares/Third_Party/RealThread_RTOS_RT-Thread/libcpu/arm/cortex-m3/cpuport.c ****     if(SCB_CFSR_UFSR & (1<<8))
 147:Middlewares/Third_Party/RealThread_RTOS_RT-Thread/libcpu/arm/cortex-m3/cpuport.c ****     {
 148:Middlewares/Third_Party/RealThread_RTOS_RT-Thread/libcpu/arm/cortex-m3/cpuport.c ****         /* [8]:UNALIGNED */
 149:Middlewares/Third_Party/RealThread_RTOS_RT-Thread/libcpu/arm/cortex-m3/cpuport.c ****         rt_kprintf("UNALIGNED ");
 150:Middlewares/Third_Party/RealThread_RTOS_RT-Thread/libcpu/arm/cortex-m3/cpuport.c ****     }
 151:Middlewares/Third_Party/RealThread_RTOS_RT-Thread/libcpu/arm/cortex-m3/cpuport.c **** 
 152:Middlewares/Third_Party/RealThread_RTOS_RT-Thread/libcpu/arm/cortex-m3/cpuport.c ****     if(SCB_CFSR_UFSR & (1<<9))
 153:Middlewares/Third_Party/RealThread_RTOS_RT-Thread/libcpu/arm/cortex-m3/cpuport.c ****     {
 154:Middlewares/Third_Party/RealThread_RTOS_RT-Thread/libcpu/arm/cortex-m3/cpuport.c ****         /* [9]:DIVBYZERO */
 155:Middlewares/Third_Party/RealThread_RTOS_RT-Thread/libcpu/arm/cortex-m3/cpuport.c ****         rt_kprintf("DIVBYZERO ");
 156:Middlewares/Third_Party/RealThread_RTOS_RT-Thread/libcpu/arm/cortex-m3/cpuport.c ****     }
 157:Middlewares/Third_Party/RealThread_RTOS_RT-Thread/libcpu/arm/cortex-m3/cpuport.c **** 
ARM GAS  C:\Users\GKQ\AppData\Local\Temp\ccBmEnAf.s 			page 5


 158:Middlewares/Third_Party/RealThread_RTOS_RT-Thread/libcpu/arm/cortex-m3/cpuport.c ****     rt_kprintf("\n");
 159:Middlewares/Third_Party/RealThread_RTOS_RT-Thread/libcpu/arm/cortex-m3/cpuport.c **** }
 160:Middlewares/Third_Party/RealThread_RTOS_RT-Thread/libcpu/arm/cortex-m3/cpuport.c **** 
 161:Middlewares/Third_Party/RealThread_RTOS_RT-Thread/libcpu/arm/cortex-m3/cpuport.c **** static void bus_fault_track(void)
 162:Middlewares/Third_Party/RealThread_RTOS_RT-Thread/libcpu/arm/cortex-m3/cpuport.c **** {
  54              		.loc 1 162 1 view -0
  55              		.cfi_startproc
  56              		@ args = 0, pretend = 0, frame = 0
  57              		@ frame_needed = 0, uses_anonymous_args = 0
  58 0000 10B5     		push	{r4, lr}
  59              	.LCFI0:
  60              		.cfi_def_cfa_offset 8
  61              		.cfi_offset 4, -8
  62              		.cfi_offset 14, -4
 163:Middlewares/Third_Party/RealThread_RTOS_RT-Thread/libcpu/arm/cortex-m3/cpuport.c ****     rt_kprintf("bus fault:\n");
  63              		.loc 1 163 5 view .LVU1
  64 0002 2148     		ldr	r0, .L16
  65 0004 FFF7FEFF 		bl	rt_kprintf
  66              	.LVL0:
 164:Middlewares/Third_Party/RealThread_RTOS_RT-Thread/libcpu/arm/cortex-m3/cpuport.c ****     rt_kprintf("SCB_CFSR_BFSR:0x%02X ", SCB_CFSR_BFSR);
  67              		.loc 1 164 5 view .LVU2
  68              		.loc 1 164 41 is_stmt 0 view .LVU3
  69 0008 204C     		ldr	r4, .L16+4
  70 000a 2178     		ldrb	r1, [r4]	@ zero_extendqisi2
  71              		.loc 1 164 5 view .LVU4
  72 000c 2048     		ldr	r0, .L16+8
  73 000e FFF7FEFF 		bl	rt_kprintf
  74              	.LVL1:
 165:Middlewares/Third_Party/RealThread_RTOS_RT-Thread/libcpu/arm/cortex-m3/cpuport.c **** 
 166:Middlewares/Third_Party/RealThread_RTOS_RT-Thread/libcpu/arm/cortex-m3/cpuport.c ****     if(SCB_CFSR_BFSR & (1<<0))
  75              		.loc 1 166 5 is_stmt 1 view .LVU5
  76              		.loc 1 166 8 is_stmt 0 view .LVU6
  77 0012 2378     		ldrb	r3, [r4]	@ zero_extendqisi2
  78              		.loc 1 166 7 view .LVU7
  79 0014 13F0010F 		tst	r3, #1
  80 0018 1CD1     		bne	.L10
  81              	.L2:
 167:Middlewares/Third_Party/RealThread_RTOS_RT-Thread/libcpu/arm/cortex-m3/cpuport.c ****     {
 168:Middlewares/Third_Party/RealThread_RTOS_RT-Thread/libcpu/arm/cortex-m3/cpuport.c ****         /* [0]:IBUSERR */
 169:Middlewares/Third_Party/RealThread_RTOS_RT-Thread/libcpu/arm/cortex-m3/cpuport.c ****         rt_kprintf("IBUSERR ");
 170:Middlewares/Third_Party/RealThread_RTOS_RT-Thread/libcpu/arm/cortex-m3/cpuport.c ****     }
 171:Middlewares/Third_Party/RealThread_RTOS_RT-Thread/libcpu/arm/cortex-m3/cpuport.c **** 
 172:Middlewares/Third_Party/RealThread_RTOS_RT-Thread/libcpu/arm/cortex-m3/cpuport.c ****     if(SCB_CFSR_BFSR & (1<<1))
  82              		.loc 1 172 5 is_stmt 1 view .LVU8
  83              		.loc 1 172 8 is_stmt 0 view .LVU9
  84 001a 1C4B     		ldr	r3, .L16+4
  85 001c 1B78     		ldrb	r3, [r3]	@ zero_extendqisi2
  86              		.loc 1 172 7 view .LVU10
  87 001e 13F0020F 		tst	r3, #2
  88 0022 1BD1     		bne	.L11
  89              	.L3:
 173:Middlewares/Third_Party/RealThread_RTOS_RT-Thread/libcpu/arm/cortex-m3/cpuport.c ****     {
 174:Middlewares/Third_Party/RealThread_RTOS_RT-Thread/libcpu/arm/cortex-m3/cpuport.c ****         /* [1]:PRECISERR */
 175:Middlewares/Third_Party/RealThread_RTOS_RT-Thread/libcpu/arm/cortex-m3/cpuport.c ****         rt_kprintf("PRECISERR ");
 176:Middlewares/Third_Party/RealThread_RTOS_RT-Thread/libcpu/arm/cortex-m3/cpuport.c ****     }
 177:Middlewares/Third_Party/RealThread_RTOS_RT-Thread/libcpu/arm/cortex-m3/cpuport.c **** 
 178:Middlewares/Third_Party/RealThread_RTOS_RT-Thread/libcpu/arm/cortex-m3/cpuport.c ****     if(SCB_CFSR_BFSR & (1<<2))
ARM GAS  C:\Users\GKQ\AppData\Local\Temp\ccBmEnAf.s 			page 6


  90              		.loc 1 178 5 is_stmt 1 view .LVU11
  91              		.loc 1 178 8 is_stmt 0 view .LVU12
  92 0024 194B     		ldr	r3, .L16+4
  93 0026 1B78     		ldrb	r3, [r3]	@ zero_extendqisi2
  94              		.loc 1 178 7 view .LVU13
  95 0028 13F0040F 		tst	r3, #4
  96 002c 1AD1     		bne	.L12
  97              	.L4:
 179:Middlewares/Third_Party/RealThread_RTOS_RT-Thread/libcpu/arm/cortex-m3/cpuport.c ****     {
 180:Middlewares/Third_Party/RealThread_RTOS_RT-Thread/libcpu/arm/cortex-m3/cpuport.c ****         /* [2]:IMPRECISERR */
 181:Middlewares/Third_Party/RealThread_RTOS_RT-Thread/libcpu/arm/cortex-m3/cpuport.c ****         rt_kprintf("IMPRECISERR ");
 182:Middlewares/Third_Party/RealThread_RTOS_RT-Thread/libcpu/arm/cortex-m3/cpuport.c ****     }
 183:Middlewares/Third_Party/RealThread_RTOS_RT-Thread/libcpu/arm/cortex-m3/cpuport.c **** 
 184:Middlewares/Third_Party/RealThread_RTOS_RT-Thread/libcpu/arm/cortex-m3/cpuport.c ****     if(SCB_CFSR_BFSR & (1<<3))
  98              		.loc 1 184 5 is_stmt 1 view .LVU14
  99              		.loc 1 184 8 is_stmt 0 view .LVU15
 100 002e 174B     		ldr	r3, .L16+4
 101 0030 1B78     		ldrb	r3, [r3]	@ zero_extendqisi2
 102              		.loc 1 184 7 view .LVU16
 103 0032 13F0080F 		tst	r3, #8
 104 0036 19D1     		bne	.L13
 105              	.L5:
 185:Middlewares/Third_Party/RealThread_RTOS_RT-Thread/libcpu/arm/cortex-m3/cpuport.c ****     {
 186:Middlewares/Third_Party/RealThread_RTOS_RT-Thread/libcpu/arm/cortex-m3/cpuport.c ****         /* [3]:UNSTKERR */
 187:Middlewares/Third_Party/RealThread_RTOS_RT-Thread/libcpu/arm/cortex-m3/cpuport.c ****         rt_kprintf("UNSTKERR ");
 188:Middlewares/Third_Party/RealThread_RTOS_RT-Thread/libcpu/arm/cortex-m3/cpuport.c ****     }
 189:Middlewares/Third_Party/RealThread_RTOS_RT-Thread/libcpu/arm/cortex-m3/cpuport.c **** 
 190:Middlewares/Third_Party/RealThread_RTOS_RT-Thread/libcpu/arm/cortex-m3/cpuport.c ****     if(SCB_CFSR_BFSR & (1<<4))
 106              		.loc 1 190 5 is_stmt 1 view .LVU17
 107              		.loc 1 190 8 is_stmt 0 view .LVU18
 108 0038 144B     		ldr	r3, .L16+4
 109 003a 1B78     		ldrb	r3, [r3]	@ zero_extendqisi2
 110              		.loc 1 190 7 view .LVU19
 111 003c 13F0100F 		tst	r3, #16
 112 0040 18D1     		bne	.L14
 113              	.L6:
 191:Middlewares/Third_Party/RealThread_RTOS_RT-Thread/libcpu/arm/cortex-m3/cpuport.c ****     {
 192:Middlewares/Third_Party/RealThread_RTOS_RT-Thread/libcpu/arm/cortex-m3/cpuport.c ****         /* [4]:STKERR */
 193:Middlewares/Third_Party/RealThread_RTOS_RT-Thread/libcpu/arm/cortex-m3/cpuport.c ****         rt_kprintf("STKERR ");
 194:Middlewares/Third_Party/RealThread_RTOS_RT-Thread/libcpu/arm/cortex-m3/cpuport.c ****     }
 195:Middlewares/Third_Party/RealThread_RTOS_RT-Thread/libcpu/arm/cortex-m3/cpuport.c **** 
 196:Middlewares/Third_Party/RealThread_RTOS_RT-Thread/libcpu/arm/cortex-m3/cpuport.c ****     if(SCB_CFSR_BFSR & (1<<7))
 114              		.loc 1 196 5 is_stmt 1 view .LVU20
 115              		.loc 1 196 8 is_stmt 0 view .LVU21
 116 0042 124B     		ldr	r3, .L16+4
 117 0044 1B78     		ldrb	r3, [r3]	@ zero_extendqisi2
 118              		.loc 1 196 7 view .LVU22
 119 0046 13F0800F 		tst	r3, #128
 120 004a 17D1     		bne	.L15
 197:Middlewares/Third_Party/RealThread_RTOS_RT-Thread/libcpu/arm/cortex-m3/cpuport.c ****     {
 198:Middlewares/Third_Party/RealThread_RTOS_RT-Thread/libcpu/arm/cortex-m3/cpuport.c ****         rt_kprintf("SCB->BFAR:%08X\n", SCB_BFAR);
 199:Middlewares/Third_Party/RealThread_RTOS_RT-Thread/libcpu/arm/cortex-m3/cpuport.c ****     }
 200:Middlewares/Third_Party/RealThread_RTOS_RT-Thread/libcpu/arm/cortex-m3/cpuport.c ****     else
 201:Middlewares/Third_Party/RealThread_RTOS_RT-Thread/libcpu/arm/cortex-m3/cpuport.c ****     {
 202:Middlewares/Third_Party/RealThread_RTOS_RT-Thread/libcpu/arm/cortex-m3/cpuport.c ****         rt_kprintf("\n");
 121              		.loc 1 202 9 is_stmt 1 view .LVU23
 122 004c 1148     		ldr	r0, .L16+12
ARM GAS  C:\Users\GKQ\AppData\Local\Temp\ccBmEnAf.s 			page 7


 123 004e FFF7FEFF 		bl	rt_kprintf
 124              	.LVL2:
 125              	.L1:
 203:Middlewares/Third_Party/RealThread_RTOS_RT-Thread/libcpu/arm/cortex-m3/cpuport.c ****     }
 204:Middlewares/Third_Party/RealThread_RTOS_RT-Thread/libcpu/arm/cortex-m3/cpuport.c **** }
 126              		.loc 1 204 1 is_stmt 0 view .LVU24
 127 0052 10BD     		pop	{r4, pc}
 128              	.L10:
 169:Middlewares/Third_Party/RealThread_RTOS_RT-Thread/libcpu/arm/cortex-m3/cpuport.c ****     }
 129              		.loc 1 169 9 is_stmt 1 view .LVU25
 130 0054 1048     		ldr	r0, .L16+16
 131 0056 FFF7FEFF 		bl	rt_kprintf
 132              	.LVL3:
 133 005a DEE7     		b	.L2
 134              	.L11:
 175:Middlewares/Third_Party/RealThread_RTOS_RT-Thread/libcpu/arm/cortex-m3/cpuport.c ****     }
 135              		.loc 1 175 9 view .LVU26
 136 005c 0F48     		ldr	r0, .L16+20
 137 005e FFF7FEFF 		bl	rt_kprintf
 138              	.LVL4:
 139 0062 DFE7     		b	.L3
 140              	.L12:
 181:Middlewares/Third_Party/RealThread_RTOS_RT-Thread/libcpu/arm/cortex-m3/cpuport.c ****     }
 141              		.loc 1 181 9 view .LVU27
 142 0064 0E48     		ldr	r0, .L16+24
 143 0066 FFF7FEFF 		bl	rt_kprintf
 144              	.LVL5:
 145 006a E0E7     		b	.L4
 146              	.L13:
 187:Middlewares/Third_Party/RealThread_RTOS_RT-Thread/libcpu/arm/cortex-m3/cpuport.c ****     }
 147              		.loc 1 187 9 view .LVU28
 148 006c 0D48     		ldr	r0, .L16+28
 149 006e FFF7FEFF 		bl	rt_kprintf
 150              	.LVL6:
 151 0072 E1E7     		b	.L5
 152              	.L14:
 193:Middlewares/Third_Party/RealThread_RTOS_RT-Thread/libcpu/arm/cortex-m3/cpuport.c ****     }
 153              		.loc 1 193 9 view .LVU29
 154 0074 0C48     		ldr	r0, .L16+32
 155 0076 FFF7FEFF 		bl	rt_kprintf
 156              	.LVL7:
 157 007a E2E7     		b	.L6
 158              	.L15:
 198:Middlewares/Third_Party/RealThread_RTOS_RT-Thread/libcpu/arm/cortex-m3/cpuport.c ****     }
 159              		.loc 1 198 9 view .LVU30
 160 007c 0B4B     		ldr	r3, .L16+36
 161 007e 1968     		ldr	r1, [r3]
 162 0080 0B48     		ldr	r0, .L16+40
 163 0082 FFF7FEFF 		bl	rt_kprintf
 164              	.LVL8:
 165 0086 E4E7     		b	.L1
 166              	.L17:
 167              		.align	2
 168              	.L16:
 169 0088 00000000 		.word	.LC0
 170 008c 29ED00E0 		.word	-536810199
 171 0090 0C000000 		.word	.LC1
ARM GAS  C:\Users\GKQ\AppData\Local\Temp\ccBmEnAf.s 			page 8


 172 0094 70000000 		.word	.LC8
 173 0098 24000000 		.word	.LC2
 174 009c 30000000 		.word	.LC3
 175 00a0 3C000000 		.word	.LC4
 176 00a4 4C000000 		.word	.LC5
 177 00a8 58000000 		.word	.LC6
 178 00ac 38ED00E0 		.word	-536810184
 179 00b0 60000000 		.word	.LC7
 180              		.cfi_endproc
 181              	.LFE18:
 183              		.section	.rodata.mem_manage_fault_track.str1.4,"aMS",%progbits,1
 184              		.align	2
 185              	.LC9:
 186 0000 6D656D20 		.ascii	"mem manage fault:\012\000"
 186      6D616E61 
 186      67652066 
 186      61756C74 
 186      3A0A00
 187 0013 00       		.align	2
 188              	.LC10:
 189 0014 5343425F 		.ascii	"SCB_CFSR_MFSR:0x%02X \000"
 189      43465352 
 189      5F4D4653 
 189      523A3078 
 189      25303258 
 190 002a 0000     		.align	2
 191              	.LC11:
 192 002c 49414343 		.ascii	"IACCVIOL \000"
 192      56494F4C 
 192      2000
 193 0036 0000     		.align	2
 194              	.LC12:
 195 0038 44414343 		.ascii	"DACCVIOL \000"
 195      56494F4C 
 195      2000
 196 0042 0000     		.align	2
 197              	.LC13:
 198 0044 4D554E53 		.ascii	"MUNSTKERR \000"
 198      544B4552 
 198      522000
 199 004f 00       		.align	2
 200              	.LC14:
 201 0050 4D53544B 		.ascii	"MSTKERR \000"
 201      45525220 
 201      00
 202 0059 000000   		.align	2
 203              	.LC15:
 204 005c 5343422D 		.ascii	"SCB->MMAR:%08X\012\000"
 204      3E4D4D41 
 204      523A2530 
 204      38580A00 
 205              		.section	.text.mem_manage_fault_track,"ax",%progbits
 206              		.align	1
 207              		.syntax unified
 208              		.thumb
 209              		.thumb_func
 210              		.fpu softvfp
ARM GAS  C:\Users\GKQ\AppData\Local\Temp\ccBmEnAf.s 			page 9


 212              	mem_manage_fault_track:
 213              	.LFB19:
 205:Middlewares/Third_Party/RealThread_RTOS_RT-Thread/libcpu/arm/cortex-m3/cpuport.c **** 
 206:Middlewares/Third_Party/RealThread_RTOS_RT-Thread/libcpu/arm/cortex-m3/cpuport.c **** static void mem_manage_fault_track(void)
 207:Middlewares/Third_Party/RealThread_RTOS_RT-Thread/libcpu/arm/cortex-m3/cpuport.c **** {
 214              		.loc 1 207 1 view -0
 215              		.cfi_startproc
 216              		@ args = 0, pretend = 0, frame = 0
 217              		@ frame_needed = 0, uses_anonymous_args = 0
 218 0000 10B5     		push	{r4, lr}
 219              	.LCFI1:
 220              		.cfi_def_cfa_offset 8
 221              		.cfi_offset 4, -8
 222              		.cfi_offset 14, -4
 208:Middlewares/Third_Party/RealThread_RTOS_RT-Thread/libcpu/arm/cortex-m3/cpuport.c ****     rt_kprintf("mem manage fault:\n");
 223              		.loc 1 208 5 view .LVU32
 224 0002 1D48     		ldr	r0, .L31
 225 0004 FFF7FEFF 		bl	rt_kprintf
 226              	.LVL9:
 209:Middlewares/Third_Party/RealThread_RTOS_RT-Thread/libcpu/arm/cortex-m3/cpuport.c ****     rt_kprintf("SCB_CFSR_MFSR:0x%02X ", SCB_CFSR_MFSR);
 227              		.loc 1 209 5 view .LVU33
 228              		.loc 1 209 41 is_stmt 0 view .LVU34
 229 0008 1C4C     		ldr	r4, .L31+4
 230 000a 2178     		ldrb	r1, [r4]	@ zero_extendqisi2
 231              		.loc 1 209 5 view .LVU35
 232 000c 1C48     		ldr	r0, .L31+8
 233 000e FFF7FEFF 		bl	rt_kprintf
 234              	.LVL10:
 210:Middlewares/Third_Party/RealThread_RTOS_RT-Thread/libcpu/arm/cortex-m3/cpuport.c **** 
 211:Middlewares/Third_Party/RealThread_RTOS_RT-Thread/libcpu/arm/cortex-m3/cpuport.c ****     if(SCB_CFSR_MFSR & (1<<0))
 235              		.loc 1 211 5 is_stmt 1 view .LVU36
 236              		.loc 1 211 8 is_stmt 0 view .LVU37
 237 0012 2378     		ldrb	r3, [r4]	@ zero_extendqisi2
 238              		.loc 1 211 7 view .LVU38
 239 0014 13F0010F 		tst	r3, #1
 240 0018 17D1     		bne	.L26
 241              	.L19:
 212:Middlewares/Third_Party/RealThread_RTOS_RT-Thread/libcpu/arm/cortex-m3/cpuport.c ****     {
 213:Middlewares/Third_Party/RealThread_RTOS_RT-Thread/libcpu/arm/cortex-m3/cpuport.c ****         /* [0]:IACCVIOL */
 214:Middlewares/Third_Party/RealThread_RTOS_RT-Thread/libcpu/arm/cortex-m3/cpuport.c ****         rt_kprintf("IACCVIOL ");
 215:Middlewares/Third_Party/RealThread_RTOS_RT-Thread/libcpu/arm/cortex-m3/cpuport.c ****     }
 216:Middlewares/Third_Party/RealThread_RTOS_RT-Thread/libcpu/arm/cortex-m3/cpuport.c **** 
 217:Middlewares/Third_Party/RealThread_RTOS_RT-Thread/libcpu/arm/cortex-m3/cpuport.c ****     if(SCB_CFSR_MFSR & (1<<1))
 242              		.loc 1 217 5 is_stmt 1 view .LVU39
 243              		.loc 1 217 8 is_stmt 0 view .LVU40
 244 001a 184B     		ldr	r3, .L31+4
 245 001c 1B78     		ldrb	r3, [r3]	@ zero_extendqisi2
 246              		.loc 1 217 7 view .LVU41
 247 001e 13F0020F 		tst	r3, #2
 248 0022 16D1     		bne	.L27
 249              	.L20:
 218:Middlewares/Third_Party/RealThread_RTOS_RT-Thread/libcpu/arm/cortex-m3/cpuport.c ****     {
 219:Middlewares/Third_Party/RealThread_RTOS_RT-Thread/libcpu/arm/cortex-m3/cpuport.c ****         /* [1]:DACCVIOL */
 220:Middlewares/Third_Party/RealThread_RTOS_RT-Thread/libcpu/arm/cortex-m3/cpuport.c ****         rt_kprintf("DACCVIOL ");
 221:Middlewares/Third_Party/RealThread_RTOS_RT-Thread/libcpu/arm/cortex-m3/cpuport.c ****     }
 222:Middlewares/Third_Party/RealThread_RTOS_RT-Thread/libcpu/arm/cortex-m3/cpuport.c **** 
 223:Middlewares/Third_Party/RealThread_RTOS_RT-Thread/libcpu/arm/cortex-m3/cpuport.c ****     if(SCB_CFSR_MFSR & (1<<3))
ARM GAS  C:\Users\GKQ\AppData\Local\Temp\ccBmEnAf.s 			page 10


 250              		.loc 1 223 5 is_stmt 1 view .LVU42
 251              		.loc 1 223 8 is_stmt 0 view .LVU43
 252 0024 154B     		ldr	r3, .L31+4
 253 0026 1B78     		ldrb	r3, [r3]	@ zero_extendqisi2
 254              		.loc 1 223 7 view .LVU44
 255 0028 13F0080F 		tst	r3, #8
 256 002c 15D1     		bne	.L28
 257              	.L21:
 224:Middlewares/Third_Party/RealThread_RTOS_RT-Thread/libcpu/arm/cortex-m3/cpuport.c ****     {
 225:Middlewares/Third_Party/RealThread_RTOS_RT-Thread/libcpu/arm/cortex-m3/cpuport.c ****         /* [3]:MUNSTKERR */
 226:Middlewares/Third_Party/RealThread_RTOS_RT-Thread/libcpu/arm/cortex-m3/cpuport.c ****         rt_kprintf("MUNSTKERR ");
 227:Middlewares/Third_Party/RealThread_RTOS_RT-Thread/libcpu/arm/cortex-m3/cpuport.c ****     }
 228:Middlewares/Third_Party/RealThread_RTOS_RT-Thread/libcpu/arm/cortex-m3/cpuport.c **** 
 229:Middlewares/Third_Party/RealThread_RTOS_RT-Thread/libcpu/arm/cortex-m3/cpuport.c ****     if(SCB_CFSR_MFSR & (1<<4))
 258              		.loc 1 229 5 is_stmt 1 view .LVU45
 259              		.loc 1 229 8 is_stmt 0 view .LVU46
 260 002e 134B     		ldr	r3, .L31+4
 261 0030 1B78     		ldrb	r3, [r3]	@ zero_extendqisi2
 262              		.loc 1 229 7 view .LVU47
 263 0032 13F0100F 		tst	r3, #16
 264 0036 14D1     		bne	.L29
 265              	.L22:
 230:Middlewares/Third_Party/RealThread_RTOS_RT-Thread/libcpu/arm/cortex-m3/cpuport.c ****     {
 231:Middlewares/Third_Party/RealThread_RTOS_RT-Thread/libcpu/arm/cortex-m3/cpuport.c ****         /* [4]:MSTKERR */
 232:Middlewares/Third_Party/RealThread_RTOS_RT-Thread/libcpu/arm/cortex-m3/cpuport.c ****         rt_kprintf("MSTKERR ");
 233:Middlewares/Third_Party/RealThread_RTOS_RT-Thread/libcpu/arm/cortex-m3/cpuport.c ****     }
 234:Middlewares/Third_Party/RealThread_RTOS_RT-Thread/libcpu/arm/cortex-m3/cpuport.c **** 
 235:Middlewares/Third_Party/RealThread_RTOS_RT-Thread/libcpu/arm/cortex-m3/cpuport.c ****     if(SCB_CFSR_MFSR & (1<<7))
 266              		.loc 1 235 5 is_stmt 1 view .LVU48
 267              		.loc 1 235 8 is_stmt 0 view .LVU49
 268 0038 104B     		ldr	r3, .L31+4
 269 003a 1B78     		ldrb	r3, [r3]	@ zero_extendqisi2
 270              		.loc 1 235 7 view .LVU50
 271 003c 13F0800F 		tst	r3, #128
 272 0040 13D1     		bne	.L30
 236:Middlewares/Third_Party/RealThread_RTOS_RT-Thread/libcpu/arm/cortex-m3/cpuport.c ****     {
 237:Middlewares/Third_Party/RealThread_RTOS_RT-Thread/libcpu/arm/cortex-m3/cpuport.c ****         /* [7]:MMARVALID */
 238:Middlewares/Third_Party/RealThread_RTOS_RT-Thread/libcpu/arm/cortex-m3/cpuport.c ****         rt_kprintf("SCB->MMAR:%08X\n", SCB_MMAR);
 239:Middlewares/Third_Party/RealThread_RTOS_RT-Thread/libcpu/arm/cortex-m3/cpuport.c ****     }
 240:Middlewares/Third_Party/RealThread_RTOS_RT-Thread/libcpu/arm/cortex-m3/cpuport.c ****     else
 241:Middlewares/Third_Party/RealThread_RTOS_RT-Thread/libcpu/arm/cortex-m3/cpuport.c ****     {
 242:Middlewares/Third_Party/RealThread_RTOS_RT-Thread/libcpu/arm/cortex-m3/cpuport.c ****         rt_kprintf("\n");
 273              		.loc 1 242 9 is_stmt 1 view .LVU51
 274 0042 1048     		ldr	r0, .L31+12
 275 0044 FFF7FEFF 		bl	rt_kprintf
 276              	.LVL11:
 277              	.L18:
 243:Middlewares/Third_Party/RealThread_RTOS_RT-Thread/libcpu/arm/cortex-m3/cpuport.c ****     }
 244:Middlewares/Third_Party/RealThread_RTOS_RT-Thread/libcpu/arm/cortex-m3/cpuport.c **** }
 278              		.loc 1 244 1 is_stmt 0 view .LVU52
 279 0048 10BD     		pop	{r4, pc}
 280              	.L26:
 214:Middlewares/Third_Party/RealThread_RTOS_RT-Thread/libcpu/arm/cortex-m3/cpuport.c ****     }
 281              		.loc 1 214 9 is_stmt 1 view .LVU53
 282 004a 0F48     		ldr	r0, .L31+16
 283 004c FFF7FEFF 		bl	rt_kprintf
 284              	.LVL12:
ARM GAS  C:\Users\GKQ\AppData\Local\Temp\ccBmEnAf.s 			page 11


 285 0050 E3E7     		b	.L19
 286              	.L27:
 220:Middlewares/Third_Party/RealThread_RTOS_RT-Thread/libcpu/arm/cortex-m3/cpuport.c ****     }
 287              		.loc 1 220 9 view .LVU54
 288 0052 0E48     		ldr	r0, .L31+20
 289 0054 FFF7FEFF 		bl	rt_kprintf
 290              	.LVL13:
 291 0058 E4E7     		b	.L20
 292              	.L28:
 226:Middlewares/Third_Party/RealThread_RTOS_RT-Thread/libcpu/arm/cortex-m3/cpuport.c ****     }
 293              		.loc 1 226 9 view .LVU55
 294 005a 0D48     		ldr	r0, .L31+24
 295 005c FFF7FEFF 		bl	rt_kprintf
 296              	.LVL14:
 297 0060 E5E7     		b	.L21
 298              	.L29:
 232:Middlewares/Third_Party/RealThread_RTOS_RT-Thread/libcpu/arm/cortex-m3/cpuport.c ****     }
 299              		.loc 1 232 9 view .LVU56
 300 0062 0C48     		ldr	r0, .L31+28
 301 0064 FFF7FEFF 		bl	rt_kprintf
 302              	.LVL15:
 303 0068 E6E7     		b	.L22
 304              	.L30:
 238:Middlewares/Third_Party/RealThread_RTOS_RT-Thread/libcpu/arm/cortex-m3/cpuport.c ****     }
 305              		.loc 1 238 9 view .LVU57
 306 006a 0B4B     		ldr	r3, .L31+32
 307 006c 1968     		ldr	r1, [r3]
 308 006e 0B48     		ldr	r0, .L31+36
 309 0070 FFF7FEFF 		bl	rt_kprintf
 310              	.LVL16:
 311 0074 E8E7     		b	.L18
 312              	.L32:
 313 0076 00BF     		.align	2
 314              	.L31:
 315 0078 00000000 		.word	.LC9
 316 007c 28ED00E0 		.word	-536810200
 317 0080 14000000 		.word	.LC10
 318 0084 70000000 		.word	.LC8
 319 0088 2C000000 		.word	.LC11
 320 008c 38000000 		.word	.LC12
 321 0090 44000000 		.word	.LC13
 322 0094 50000000 		.word	.LC14
 323 0098 34ED00E0 		.word	-536810188
 324 009c 5C000000 		.word	.LC15
 325              		.cfi_endproc
 326              	.LFE19:
 328              		.section	.rodata.usage_fault_track.str1.4,"aMS",%progbits,1
 329              		.align	2
 330              	.LC16:
 331 0000 75736167 		.ascii	"usage fault:\012\000"
 331      65206661 
 331      756C743A 
 331      0A00
 332 000e 0000     		.align	2
 333              	.LC17:
 334 0010 5343425F 		.ascii	"SCB_CFSR_UFSR:0x%02X \000"
 334      43465352 
ARM GAS  C:\Users\GKQ\AppData\Local\Temp\ccBmEnAf.s 			page 12


 334      5F554653 
 334      523A3078 
 334      25303258 
 335 0026 0000     		.align	2
 336              	.LC18:
 337 0028 554E4445 		.ascii	"UNDEFINSTR \000"
 337      46494E53 
 337      54522000 
 338              		.align	2
 339              	.LC19:
 340 0034 494E5653 		.ascii	"INVSTATE \000"
 340      54415445 
 340      2000
 341 003e 0000     		.align	2
 342              	.LC20:
 343 0040 494E5650 		.ascii	"INVPC \000"
 343      432000
 344 0047 00       		.align	2
 345              	.LC21:
 346 0048 4E4F4350 		.ascii	"NOCP \000"
 346      2000
 347 004e 0000     		.align	2
 348              	.LC22:
 349 0050 554E414C 		.ascii	"UNALIGNED \000"
 349      49474E45 
 349      442000
 350 005b 00       		.align	2
 351              	.LC23:
 352 005c 44495642 		.ascii	"DIVBYZERO \000"
 352      595A4552 
 352      4F2000
 353              		.section	.text.usage_fault_track,"ax",%progbits
 354              		.align	1
 355              		.syntax unified
 356              		.thumb
 357              		.thumb_func
 358              		.fpu softvfp
 360              	usage_fault_track:
 361              	.LFB17:
 118:Middlewares/Third_Party/RealThread_RTOS_RT-Thread/libcpu/arm/cortex-m3/cpuport.c ****     rt_kprintf("usage fault:\n");
 362              		.loc 1 118 1 view -0
 363              		.cfi_startproc
 364              		@ args = 0, pretend = 0, frame = 0
 365              		@ frame_needed = 0, uses_anonymous_args = 0
 366 0000 10B5     		push	{r4, lr}
 367              	.LCFI2:
 368              		.cfi_def_cfa_offset 8
 369              		.cfi_offset 4, -8
 370              		.cfi_offset 14, -4
 119:Middlewares/Third_Party/RealThread_RTOS_RT-Thread/libcpu/arm/cortex-m3/cpuport.c ****     rt_kprintf("SCB_CFSR_UFSR:0x%02X ", SCB_CFSR_UFSR);
 371              		.loc 1 119 5 view .LVU59
 372 0002 2148     		ldr	r0, .L47
 373 0004 FFF7FEFF 		bl	rt_kprintf
 374              	.LVL17:
 120:Middlewares/Third_Party/RealThread_RTOS_RT-Thread/libcpu/arm/cortex-m3/cpuport.c **** 
 375              		.loc 1 120 5 view .LVU60
 120:Middlewares/Third_Party/RealThread_RTOS_RT-Thread/libcpu/arm/cortex-m3/cpuport.c **** 
ARM GAS  C:\Users\GKQ\AppData\Local\Temp\ccBmEnAf.s 			page 13


 376              		.loc 1 120 41 is_stmt 0 view .LVU61
 377 0008 204C     		ldr	r4, .L47+4
 378 000a 2188     		ldrh	r1, [r4]
 120:Middlewares/Third_Party/RealThread_RTOS_RT-Thread/libcpu/arm/cortex-m3/cpuport.c **** 
 379              		.loc 1 120 5 view .LVU62
 380 000c 89B2     		uxth	r1, r1
 381 000e 2048     		ldr	r0, .L47+8
 382 0010 FFF7FEFF 		bl	rt_kprintf
 383              	.LVL18:
 122:Middlewares/Third_Party/RealThread_RTOS_RT-Thread/libcpu/arm/cortex-m3/cpuport.c ****     {
 384              		.loc 1 122 5 is_stmt 1 view .LVU63
 122:Middlewares/Third_Party/RealThread_RTOS_RT-Thread/libcpu/arm/cortex-m3/cpuport.c ****     {
 385              		.loc 1 122 8 is_stmt 0 view .LVU64
 386 0014 2388     		ldrh	r3, [r4]
 122:Middlewares/Third_Party/RealThread_RTOS_RT-Thread/libcpu/arm/cortex-m3/cpuport.c ****     {
 387              		.loc 1 122 7 view .LVU65
 388 0016 13F0010F 		tst	r3, #1
 389 001a 1CD1     		bne	.L41
 390              	.L34:
 128:Middlewares/Third_Party/RealThread_RTOS_RT-Thread/libcpu/arm/cortex-m3/cpuport.c ****     {
 391              		.loc 1 128 5 is_stmt 1 view .LVU66
 128:Middlewares/Third_Party/RealThread_RTOS_RT-Thread/libcpu/arm/cortex-m3/cpuport.c ****     {
 392              		.loc 1 128 8 is_stmt 0 view .LVU67
 393 001c 1B4B     		ldr	r3, .L47+4
 394 001e 1B88     		ldrh	r3, [r3]
 128:Middlewares/Third_Party/RealThread_RTOS_RT-Thread/libcpu/arm/cortex-m3/cpuport.c ****     {
 395              		.loc 1 128 7 view .LVU68
 396 0020 13F0020F 		tst	r3, #2
 397 0024 1BD1     		bne	.L42
 398              	.L35:
 134:Middlewares/Third_Party/RealThread_RTOS_RT-Thread/libcpu/arm/cortex-m3/cpuport.c ****     {
 399              		.loc 1 134 5 is_stmt 1 view .LVU69
 134:Middlewares/Third_Party/RealThread_RTOS_RT-Thread/libcpu/arm/cortex-m3/cpuport.c ****     {
 400              		.loc 1 134 8 is_stmt 0 view .LVU70
 401 0026 194B     		ldr	r3, .L47+4
 402 0028 1B88     		ldrh	r3, [r3]
 134:Middlewares/Third_Party/RealThread_RTOS_RT-Thread/libcpu/arm/cortex-m3/cpuport.c ****     {
 403              		.loc 1 134 7 view .LVU71
 404 002a 13F0040F 		tst	r3, #4
 405 002e 1AD1     		bne	.L43
 406              	.L36:
 140:Middlewares/Third_Party/RealThread_RTOS_RT-Thread/libcpu/arm/cortex-m3/cpuport.c ****     {
 407              		.loc 1 140 5 is_stmt 1 view .LVU72
 140:Middlewares/Third_Party/RealThread_RTOS_RT-Thread/libcpu/arm/cortex-m3/cpuport.c ****     {
 408              		.loc 1 140 8 is_stmt 0 view .LVU73
 409 0030 164B     		ldr	r3, .L47+4
 410 0032 1B88     		ldrh	r3, [r3]
 140:Middlewares/Third_Party/RealThread_RTOS_RT-Thread/libcpu/arm/cortex-m3/cpuport.c ****     {
 411              		.loc 1 140 7 view .LVU74
 412 0034 13F0080F 		tst	r3, #8
 413 0038 19D1     		bne	.L44
 414              	.L37:
 146:Middlewares/Third_Party/RealThread_RTOS_RT-Thread/libcpu/arm/cortex-m3/cpuport.c ****     {
 415              		.loc 1 146 5 is_stmt 1 view .LVU75
 146:Middlewares/Third_Party/RealThread_RTOS_RT-Thread/libcpu/arm/cortex-m3/cpuport.c ****     {
 416              		.loc 1 146 8 is_stmt 0 view .LVU76
 417 003a 144B     		ldr	r3, .L47+4
ARM GAS  C:\Users\GKQ\AppData\Local\Temp\ccBmEnAf.s 			page 14


 418 003c 1B88     		ldrh	r3, [r3]
 146:Middlewares/Third_Party/RealThread_RTOS_RT-Thread/libcpu/arm/cortex-m3/cpuport.c ****     {
 419              		.loc 1 146 7 view .LVU77
 420 003e 13F4807F 		tst	r3, #256
 421 0042 18D1     		bne	.L45
 422              	.L38:
 152:Middlewares/Third_Party/RealThread_RTOS_RT-Thread/libcpu/arm/cortex-m3/cpuport.c ****     {
 423              		.loc 1 152 5 is_stmt 1 view .LVU78
 152:Middlewares/Third_Party/RealThread_RTOS_RT-Thread/libcpu/arm/cortex-m3/cpuport.c ****     {
 424              		.loc 1 152 8 is_stmt 0 view .LVU79
 425 0044 114B     		ldr	r3, .L47+4
 426 0046 1B88     		ldrh	r3, [r3]
 152:Middlewares/Third_Party/RealThread_RTOS_RT-Thread/libcpu/arm/cortex-m3/cpuport.c ****     {
 427              		.loc 1 152 7 view .LVU80
 428 0048 13F4007F 		tst	r3, #512
 429 004c 17D1     		bne	.L46
 430              	.L39:
 158:Middlewares/Third_Party/RealThread_RTOS_RT-Thread/libcpu/arm/cortex-m3/cpuport.c **** }
 431              		.loc 1 158 5 is_stmt 1 view .LVU81
 432 004e 1148     		ldr	r0, .L47+12
 433 0050 FFF7FEFF 		bl	rt_kprintf
 434              	.LVL19:
 159:Middlewares/Third_Party/RealThread_RTOS_RT-Thread/libcpu/arm/cortex-m3/cpuport.c **** 
 435              		.loc 1 159 1 is_stmt 0 view .LVU82
 436 0054 10BD     		pop	{r4, pc}
 437              	.L41:
 125:Middlewares/Third_Party/RealThread_RTOS_RT-Thread/libcpu/arm/cortex-m3/cpuport.c ****     }
 438              		.loc 1 125 9 is_stmt 1 view .LVU83
 439 0056 1048     		ldr	r0, .L47+16
 440 0058 FFF7FEFF 		bl	rt_kprintf
 441              	.LVL20:
 442 005c DEE7     		b	.L34
 443              	.L42:
 131:Middlewares/Third_Party/RealThread_RTOS_RT-Thread/libcpu/arm/cortex-m3/cpuport.c ****     }
 444              		.loc 1 131 9 view .LVU84
 445 005e 0F48     		ldr	r0, .L47+20
 446 0060 FFF7FEFF 		bl	rt_kprintf
 447              	.LVL21:
 448 0064 DFE7     		b	.L35
 449              	.L43:
 137:Middlewares/Third_Party/RealThread_RTOS_RT-Thread/libcpu/arm/cortex-m3/cpuport.c ****     }
 450              		.loc 1 137 9 view .LVU85
 451 0066 0E48     		ldr	r0, .L47+24
 452 0068 FFF7FEFF 		bl	rt_kprintf
 453              	.LVL22:
 454 006c E0E7     		b	.L36
 455              	.L44:
 143:Middlewares/Third_Party/RealThread_RTOS_RT-Thread/libcpu/arm/cortex-m3/cpuport.c ****     }
 456              		.loc 1 143 9 view .LVU86
 457 006e 0D48     		ldr	r0, .L47+28
 458 0070 FFF7FEFF 		bl	rt_kprintf
 459              	.LVL23:
 460 0074 E1E7     		b	.L37
 461              	.L45:
 149:Middlewares/Third_Party/RealThread_RTOS_RT-Thread/libcpu/arm/cortex-m3/cpuport.c ****     }
 462              		.loc 1 149 9 view .LVU87
 463 0076 0C48     		ldr	r0, .L47+32
ARM GAS  C:\Users\GKQ\AppData\Local\Temp\ccBmEnAf.s 			page 15


 464 0078 FFF7FEFF 		bl	rt_kprintf
 465              	.LVL24:
 466 007c E2E7     		b	.L38
 467              	.L46:
 155:Middlewares/Third_Party/RealThread_RTOS_RT-Thread/libcpu/arm/cortex-m3/cpuport.c ****     }
 468              		.loc 1 155 9 view .LVU88
 469 007e 0B48     		ldr	r0, .L47+36
 470 0080 FFF7FEFF 		bl	rt_kprintf
 471              	.LVL25:
 472 0084 E3E7     		b	.L39
 473              	.L48:
 474 0086 00BF     		.align	2
 475              	.L47:
 476 0088 00000000 		.word	.LC16
 477 008c 2AED00E0 		.word	-536810198
 478 0090 10000000 		.word	.LC17
 479 0094 70000000 		.word	.LC8
 480 0098 28000000 		.word	.LC18
 481 009c 34000000 		.word	.LC19
 482 00a0 40000000 		.word	.LC20
 483 00a4 48000000 		.word	.LC21
 484 00a8 50000000 		.word	.LC22
 485 00ac 5C000000 		.word	.LC23
 486              		.cfi_endproc
 487              	.LFE17:
 489              		.section	.rodata.hard_fault_track.str1.4,"aMS",%progbits,1
 490              		.align	2
 491              	.LC24:
 492 0000 6661696C 		.ascii	"failed vector fetch\012\000"
 492      65642076 
 492      6563746F 
 492      72206665 
 492      7463680A 
 493 0015 000000   		.align	2
 494              	.LC25:
 495 0018 64656275 		.ascii	"debug event\012\000"
 495      67206576 
 495      656E740A 
 495      00
 496              		.section	.text.hard_fault_track,"ax",%progbits
 497              		.align	1
 498              		.syntax unified
 499              		.thumb
 500              		.thumb_func
 501              		.fpu softvfp
 503              	hard_fault_track:
 504              	.LFB20:
 245:Middlewares/Third_Party/RealThread_RTOS_RT-Thread/libcpu/arm/cortex-m3/cpuport.c **** 
 246:Middlewares/Third_Party/RealThread_RTOS_RT-Thread/libcpu/arm/cortex-m3/cpuport.c **** static void hard_fault_track(void)
 247:Middlewares/Third_Party/RealThread_RTOS_RT-Thread/libcpu/arm/cortex-m3/cpuport.c **** {
 505              		.loc 1 247 1 view -0
 506              		.cfi_startproc
 507              		@ args = 0, pretend = 0, frame = 0
 508              		@ frame_needed = 0, uses_anonymous_args = 0
 509 0000 08B5     		push	{r3, lr}
 510              	.LCFI3:
 511              		.cfi_def_cfa_offset 8
ARM GAS  C:\Users\GKQ\AppData\Local\Temp\ccBmEnAf.s 			page 16


 512              		.cfi_offset 3, -8
 513              		.cfi_offset 14, -4
 248:Middlewares/Third_Party/RealThread_RTOS_RT-Thread/libcpu/arm/cortex-m3/cpuport.c ****     if(SCB_HFSR & (1UL<<1))
 514              		.loc 1 248 5 view .LVU90
 515              		.loc 1 248 8 is_stmt 0 view .LVU91
 516 0002 154B     		ldr	r3, .L61
 517 0004 1B68     		ldr	r3, [r3]
 518              		.loc 1 248 7 view .LVU92
 519 0006 13F0020F 		tst	r3, #2
 520 000a 13D1     		bne	.L56
 521              	.L50:
 249:Middlewares/Third_Party/RealThread_RTOS_RT-Thread/libcpu/arm/cortex-m3/cpuport.c ****     {
 250:Middlewares/Third_Party/RealThread_RTOS_RT-Thread/libcpu/arm/cortex-m3/cpuport.c ****         /* [1]:VECTBL, Indicates hard fault is caused by failed vector fetch. */
 251:Middlewares/Third_Party/RealThread_RTOS_RT-Thread/libcpu/arm/cortex-m3/cpuport.c ****         rt_kprintf("failed vector fetch\n");
 252:Middlewares/Third_Party/RealThread_RTOS_RT-Thread/libcpu/arm/cortex-m3/cpuport.c ****     }
 253:Middlewares/Third_Party/RealThread_RTOS_RT-Thread/libcpu/arm/cortex-m3/cpuport.c **** 
 254:Middlewares/Third_Party/RealThread_RTOS_RT-Thread/libcpu/arm/cortex-m3/cpuport.c ****     if(SCB_HFSR & (1UL<<30))
 522              		.loc 1 254 5 is_stmt 1 view .LVU93
 523              		.loc 1 254 8 is_stmt 0 view .LVU94
 524 000c 124B     		ldr	r3, .L61
 525 000e 1B68     		ldr	r3, [r3]
 526              		.loc 1 254 7 view .LVU95
 527 0010 13F0804F 		tst	r3, #1073741824
 528 0014 09D0     		beq	.L51
 255:Middlewares/Third_Party/RealThread_RTOS_RT-Thread/libcpu/arm/cortex-m3/cpuport.c ****     {
 256:Middlewares/Third_Party/RealThread_RTOS_RT-Thread/libcpu/arm/cortex-m3/cpuport.c ****         /* [30]:FORCED, Indicates hard fault is taken because of bus fault,
 257:Middlewares/Third_Party/RealThread_RTOS_RT-Thread/libcpu/arm/cortex-m3/cpuport.c ****                         memory management fault, or usage fault. */
 258:Middlewares/Third_Party/RealThread_RTOS_RT-Thread/libcpu/arm/cortex-m3/cpuport.c ****         if(SCB_CFSR_BFSR)
 529              		.loc 1 258 9 is_stmt 1 view .LVU96
 530              		.loc 1 258 12 is_stmt 0 view .LVU97
 531 0016 114B     		ldr	r3, .L61+4
 532 0018 1B78     		ldrb	r3, [r3]	@ zero_extendqisi2
 533              		.loc 1 258 11 view .LVU98
 534 001a 7BB9     		cbnz	r3, .L57
 535              	.L52:
 259:Middlewares/Third_Party/RealThread_RTOS_RT-Thread/libcpu/arm/cortex-m3/cpuport.c ****         {
 260:Middlewares/Third_Party/RealThread_RTOS_RT-Thread/libcpu/arm/cortex-m3/cpuport.c ****             bus_fault_track();
 261:Middlewares/Third_Party/RealThread_RTOS_RT-Thread/libcpu/arm/cortex-m3/cpuport.c ****         }
 262:Middlewares/Third_Party/RealThread_RTOS_RT-Thread/libcpu/arm/cortex-m3/cpuport.c **** 
 263:Middlewares/Third_Party/RealThread_RTOS_RT-Thread/libcpu/arm/cortex-m3/cpuport.c ****         if(SCB_CFSR_MFSR)
 536              		.loc 1 263 9 is_stmt 1 view .LVU99
 537              		.loc 1 263 12 is_stmt 0 view .LVU100
 538 001c 104B     		ldr	r3, .L61+8
 539 001e 1B78     		ldrb	r3, [r3]	@ zero_extendqisi2
 540              		.loc 1 263 11 view .LVU101
 541 0020 7BB9     		cbnz	r3, .L58
 542              	.L53:
 264:Middlewares/Third_Party/RealThread_RTOS_RT-Thread/libcpu/arm/cortex-m3/cpuport.c ****         {
 265:Middlewares/Third_Party/RealThread_RTOS_RT-Thread/libcpu/arm/cortex-m3/cpuport.c ****             mem_manage_fault_track();
 266:Middlewares/Third_Party/RealThread_RTOS_RT-Thread/libcpu/arm/cortex-m3/cpuport.c ****         }
 267:Middlewares/Third_Party/RealThread_RTOS_RT-Thread/libcpu/arm/cortex-m3/cpuport.c **** 
 268:Middlewares/Third_Party/RealThread_RTOS_RT-Thread/libcpu/arm/cortex-m3/cpuport.c ****         if(SCB_CFSR_UFSR)
 543              		.loc 1 268 9 is_stmt 1 view .LVU102
 544              		.loc 1 268 12 is_stmt 0 view .LVU103
 545 0022 104B     		ldr	r3, .L61+12
 546 0024 1B88     		ldrh	r3, [r3]
 547 0026 9BB2     		uxth	r3, r3
ARM GAS  C:\Users\GKQ\AppData\Local\Temp\ccBmEnAf.s 			page 17


 548              		.loc 1 268 11 view .LVU104
 549 0028 73B9     		cbnz	r3, .L59
 550              	.L51:
 269:Middlewares/Third_Party/RealThread_RTOS_RT-Thread/libcpu/arm/cortex-m3/cpuport.c ****         {
 270:Middlewares/Third_Party/RealThread_RTOS_RT-Thread/libcpu/arm/cortex-m3/cpuport.c ****             usage_fault_track();
 271:Middlewares/Third_Party/RealThread_RTOS_RT-Thread/libcpu/arm/cortex-m3/cpuport.c ****         }
 272:Middlewares/Third_Party/RealThread_RTOS_RT-Thread/libcpu/arm/cortex-m3/cpuport.c ****     }
 273:Middlewares/Third_Party/RealThread_RTOS_RT-Thread/libcpu/arm/cortex-m3/cpuport.c **** 
 274:Middlewares/Third_Party/RealThread_RTOS_RT-Thread/libcpu/arm/cortex-m3/cpuport.c ****     if(SCB_HFSR & (1UL<<31))
 551              		.loc 1 274 5 is_stmt 1 view .LVU105
 552              		.loc 1 274 8 is_stmt 0 view .LVU106
 553 002a 0B4B     		ldr	r3, .L61
 554 002c 1B68     		ldr	r3, [r3]
 555              		.loc 1 274 7 view .LVU107
 556 002e 002B     		cmp	r3, #0
 557 0030 0DDB     		blt	.L60
 558              	.L49:
 275:Middlewares/Third_Party/RealThread_RTOS_RT-Thread/libcpu/arm/cortex-m3/cpuport.c ****     {
 276:Middlewares/Third_Party/RealThread_RTOS_RT-Thread/libcpu/arm/cortex-m3/cpuport.c ****         /* [31]:DEBUGEVT, Indicates hard fault is triggered by debug event. */
 277:Middlewares/Third_Party/RealThread_RTOS_RT-Thread/libcpu/arm/cortex-m3/cpuport.c ****         rt_kprintf("debug event\n");
 278:Middlewares/Third_Party/RealThread_RTOS_RT-Thread/libcpu/arm/cortex-m3/cpuport.c ****     }
 279:Middlewares/Third_Party/RealThread_RTOS_RT-Thread/libcpu/arm/cortex-m3/cpuport.c **** }
 559              		.loc 1 279 1 view .LVU108
 560 0032 08BD     		pop	{r3, pc}
 561              	.L56:
 251:Middlewares/Third_Party/RealThread_RTOS_RT-Thread/libcpu/arm/cortex-m3/cpuport.c ****     }
 562              		.loc 1 251 9 is_stmt 1 view .LVU109
 563 0034 0C48     		ldr	r0, .L61+16
 564 0036 FFF7FEFF 		bl	rt_kprintf
 565              	.LVL26:
 566 003a E7E7     		b	.L50
 567              	.L57:
 260:Middlewares/Third_Party/RealThread_RTOS_RT-Thread/libcpu/arm/cortex-m3/cpuport.c ****         }
 568              		.loc 1 260 13 view .LVU110
 569 003c FFF7FEFF 		bl	bus_fault_track
 570              	.LVL27:
 571 0040 ECE7     		b	.L52
 572              	.L58:
 265:Middlewares/Third_Party/RealThread_RTOS_RT-Thread/libcpu/arm/cortex-m3/cpuport.c ****         }
 573              		.loc 1 265 13 view .LVU111
 574 0042 FFF7FEFF 		bl	mem_manage_fault_track
 575              	.LVL28:
 576 0046 ECE7     		b	.L53
 577              	.L59:
 270:Middlewares/Third_Party/RealThread_RTOS_RT-Thread/libcpu/arm/cortex-m3/cpuport.c ****         }
 578              		.loc 1 270 13 view .LVU112
 579 0048 FFF7FEFF 		bl	usage_fault_track
 580              	.LVL29:
 581 004c EDE7     		b	.L51
 582              	.L60:
 277:Middlewares/Third_Party/RealThread_RTOS_RT-Thread/libcpu/arm/cortex-m3/cpuport.c ****     }
 583              		.loc 1 277 9 view .LVU113
 584 004e 0748     		ldr	r0, .L61+20
 585 0050 FFF7FEFF 		bl	rt_kprintf
 586              	.LVL30:
 587              		.loc 1 279 1 is_stmt 0 view .LVU114
 588 0054 EDE7     		b	.L49
ARM GAS  C:\Users\GKQ\AppData\Local\Temp\ccBmEnAf.s 			page 18


 589              	.L62:
 590 0056 00BF     		.align	2
 591              	.L61:
 592 0058 2CED00E0 		.word	-536810196
 593 005c 29ED00E0 		.word	-536810199
 594 0060 28ED00E0 		.word	-536810200
 595 0064 2AED00E0 		.word	-536810198
 596 0068 00000000 		.word	.LC24
 597 006c 18000000 		.word	.LC25
 598              		.cfi_endproc
 599              	.LFE20:
 601              		.section	.text.rt_hw_stack_init,"ax",%progbits
 602              		.align	1
 603              		.global	rt_hw_stack_init
 604              		.syntax unified
 605              		.thumb
 606              		.thumb_func
 607              		.fpu softvfp
 609              	rt_hw_stack_init:
 610              	.LVL31:
 611              	.LFB15:
  65:Middlewares/Third_Party/RealThread_RTOS_RT-Thread/libcpu/arm/cortex-m3/cpuport.c ****     struct stack_frame *stack_frame;
 612              		.loc 1 65 1 is_stmt 1 view -0
 613              		.cfi_startproc
 614              		@ args = 0, pretend = 0, frame = 0
 615              		@ frame_needed = 0, uses_anonymous_args = 0
 616              		@ link register save eliminated.
  65:Middlewares/Third_Party/RealThread_RTOS_RT-Thread/libcpu/arm/cortex-m3/cpuport.c ****     struct stack_frame *stack_frame;
 617              		.loc 1 65 1 is_stmt 0 view .LVU116
 618 0000 70B4     		push	{r4, r5, r6}
 619              	.LCFI4:
 620              		.cfi_def_cfa_offset 12
 621              		.cfi_offset 4, -12
 622              		.cfi_offset 5, -8
 623              		.cfi_offset 6, -4
 624 0002 0646     		mov	r6, r0
  66:Middlewares/Third_Party/RealThread_RTOS_RT-Thread/libcpu/arm/cortex-m3/cpuport.c ****     rt_uint8_t         *stk;
 625              		.loc 1 66 5 is_stmt 1 view .LVU117
  67:Middlewares/Third_Party/RealThread_RTOS_RT-Thread/libcpu/arm/cortex-m3/cpuport.c ****     unsigned long       i;
 626              		.loc 1 67 5 view .LVU118
  68:Middlewares/Third_Party/RealThread_RTOS_RT-Thread/libcpu/arm/cortex-m3/cpuport.c **** 
 627              		.loc 1 68 5 view .LVU119
  70:Middlewares/Third_Party/RealThread_RTOS_RT-Thread/libcpu/arm/cortex-m3/cpuport.c ****     stk  = (rt_uint8_t *)RT_ALIGN_DOWN((rt_uint32_t)stk, 8);
 628              		.loc 1 70 5 view .LVU120
  70:Middlewares/Third_Party/RealThread_RTOS_RT-Thread/libcpu/arm/cortex-m3/cpuport.c ****     stk  = (rt_uint8_t *)RT_ALIGN_DOWN((rt_uint32_t)stk, 8);
 629              		.loc 1 70 10 is_stmt 0 view .LVU121
 630 0004 0432     		adds	r2, r2, #4
 631              	.LVL32:
  71:Middlewares/Third_Party/RealThread_RTOS_RT-Thread/libcpu/arm/cortex-m3/cpuport.c ****     stk -= sizeof(struct stack_frame);
 632              		.loc 1 71 5 is_stmt 1 view .LVU122
  71:Middlewares/Third_Party/RealThread_RTOS_RT-Thread/libcpu/arm/cortex-m3/cpuport.c ****     stk -= sizeof(struct stack_frame);
 633              		.loc 1 71 26 is_stmt 0 view .LVU123
 634 0006 22F00705 		bic	r5, r2, #7
 635              	.LVL33:
  72:Middlewares/Third_Party/RealThread_RTOS_RT-Thread/libcpu/arm/cortex-m3/cpuport.c **** 
 636              		.loc 1 72 5 is_stmt 1 view .LVU124
  72:Middlewares/Third_Party/RealThread_RTOS_RT-Thread/libcpu/arm/cortex-m3/cpuport.c **** 
ARM GAS  C:\Users\GKQ\AppData\Local\Temp\ccBmEnAf.s 			page 19


 637              		.loc 1 72 9 is_stmt 0 view .LVU125
 638 000a A5F14000 		sub	r0, r5, #64
 639              	.LVL34:
  74:Middlewares/Third_Party/RealThread_RTOS_RT-Thread/libcpu/arm/cortex-m3/cpuport.c **** 
 640              		.loc 1 74 5 is_stmt 1 view .LVU126
  77:Middlewares/Third_Party/RealThread_RTOS_RT-Thread/libcpu/arm/cortex-m3/cpuport.c ****     {
 641              		.loc 1 77 5 view .LVU127
  77:Middlewares/Third_Party/RealThread_RTOS_RT-Thread/libcpu/arm/cortex-m3/cpuport.c ****     {
 642              		.loc 1 77 12 is_stmt 0 view .LVU128
 643 000e 0022     		movs	r2, #0
 644              	.LVL35:
 645              	.L64:
  77:Middlewares/Third_Party/RealThread_RTOS_RT-Thread/libcpu/arm/cortex-m3/cpuport.c ****     {
 646              		.loc 1 77 17 is_stmt 1 discriminator 1 view .LVU129
  77:Middlewares/Third_Party/RealThread_RTOS_RT-Thread/libcpu/arm/cortex-m3/cpuport.c ****     {
 647              		.loc 1 77 5 is_stmt 0 discriminator 1 view .LVU130
 648 0010 0F2A     		cmp	r2, #15
 649 0012 04D8     		bhi	.L67
  79:Middlewares/Third_Party/RealThread_RTOS_RT-Thread/libcpu/arm/cortex-m3/cpuport.c ****     }
 650              		.loc 1 79 9 is_stmt 1 discriminator 3 view .LVU131
  79:Middlewares/Third_Party/RealThread_RTOS_RT-Thread/libcpu/arm/cortex-m3/cpuport.c ****     }
 651              		.loc 1 79 41 is_stmt 0 discriminator 3 view .LVU132
 652 0014 0C4C     		ldr	r4, .L68
 653 0016 40F82240 		str	r4, [r0, r2, lsl #2]
  77:Middlewares/Third_Party/RealThread_RTOS_RT-Thread/libcpu/arm/cortex-m3/cpuport.c ****     {
 654              		.loc 1 77 71 is_stmt 1 discriminator 3 view .LVU133
  77:Middlewares/Third_Party/RealThread_RTOS_RT-Thread/libcpu/arm/cortex-m3/cpuport.c ****     {
 655              		.loc 1 77 73 is_stmt 0 discriminator 3 view .LVU134
 656 001a 0132     		adds	r2, r2, #1
 657              	.LVL36:
  77:Middlewares/Third_Party/RealThread_RTOS_RT-Thread/libcpu/arm/cortex-m3/cpuport.c ****     {
 658              		.loc 1 77 73 discriminator 3 view .LVU135
 659 001c F8E7     		b	.L64
 660              	.L67:
  82:Middlewares/Third_Party/RealThread_RTOS_RT-Thread/libcpu/arm/cortex-m3/cpuport.c ****     stack_frame->exception_stack_frame.r1  = 0;                        /* r1 */
 661              		.loc 1 82 5 is_stmt 1 view .LVU136
  82:Middlewares/Third_Party/RealThread_RTOS_RT-Thread/libcpu/arm/cortex-m3/cpuport.c ****     stack_frame->exception_stack_frame.r1  = 0;                        /* r1 */
 662              		.loc 1 82 44 is_stmt 0 view .LVU137
 663 001e 45F8201C 		str	r1, [r5, #-32]
  83:Middlewares/Third_Party/RealThread_RTOS_RT-Thread/libcpu/arm/cortex-m3/cpuport.c ****     stack_frame->exception_stack_frame.r2  = 0;                        /* r2 */
 664              		.loc 1 83 5 is_stmt 1 view .LVU138
  83:Middlewares/Third_Party/RealThread_RTOS_RT-Thread/libcpu/arm/cortex-m3/cpuport.c ****     stack_frame->exception_stack_frame.r2  = 0;                        /* r2 */
 665              		.loc 1 83 44 is_stmt 0 view .LVU139
 666 0022 0022     		movs	r2, #0
 667              	.LVL37:
  83:Middlewares/Third_Party/RealThread_RTOS_RT-Thread/libcpu/arm/cortex-m3/cpuport.c ****     stack_frame->exception_stack_frame.r2  = 0;                        /* r2 */
 668              		.loc 1 83 44 view .LVU140
 669 0024 45F81C2C 		str	r2, [r5, #-28]
  84:Middlewares/Third_Party/RealThread_RTOS_RT-Thread/libcpu/arm/cortex-m3/cpuport.c ****     stack_frame->exception_stack_frame.r3  = 0;                        /* r3 */
 670              		.loc 1 84 5 is_stmt 1 view .LVU141
  84:Middlewares/Third_Party/RealThread_RTOS_RT-Thread/libcpu/arm/cortex-m3/cpuport.c ****     stack_frame->exception_stack_frame.r3  = 0;                        /* r3 */
 671              		.loc 1 84 44 is_stmt 0 view .LVU142
 672 0028 45F8182C 		str	r2, [r5, #-24]
  85:Middlewares/Third_Party/RealThread_RTOS_RT-Thread/libcpu/arm/cortex-m3/cpuport.c ****     stack_frame->exception_stack_frame.r12 = 0;                        /* r12 */
 673              		.loc 1 85 5 is_stmt 1 view .LVU143
  85:Middlewares/Third_Party/RealThread_RTOS_RT-Thread/libcpu/arm/cortex-m3/cpuport.c ****     stack_frame->exception_stack_frame.r12 = 0;                        /* r12 */
 674              		.loc 1 85 44 is_stmt 0 view .LVU144
ARM GAS  C:\Users\GKQ\AppData\Local\Temp\ccBmEnAf.s 			page 20


 675 002c 45F8142C 		str	r2, [r5, #-20]
  86:Middlewares/Third_Party/RealThread_RTOS_RT-Thread/libcpu/arm/cortex-m3/cpuport.c ****     stack_frame->exception_stack_frame.lr  = (unsigned long)texit;     /* lr */
 676              		.loc 1 86 5 is_stmt 1 view .LVU145
  86:Middlewares/Third_Party/RealThread_RTOS_RT-Thread/libcpu/arm/cortex-m3/cpuport.c ****     stack_frame->exception_stack_frame.lr  = (unsigned long)texit;     /* lr */
 677              		.loc 1 86 44 is_stmt 0 view .LVU146
 678 0030 45F8102C 		str	r2, [r5, #-16]
  87:Middlewares/Third_Party/RealThread_RTOS_RT-Thread/libcpu/arm/cortex-m3/cpuport.c ****     stack_frame->exception_stack_frame.pc  = (unsigned long)tentry;    /* entry point, pc */
 679              		.loc 1 87 5 is_stmt 1 view .LVU147
  87:Middlewares/Third_Party/RealThread_RTOS_RT-Thread/libcpu/arm/cortex-m3/cpuport.c ****     stack_frame->exception_stack_frame.pc  = (unsigned long)tentry;    /* entry point, pc */
 680              		.loc 1 87 44 is_stmt 0 view .LVU148
 681 0034 45F80C3C 		str	r3, [r5, #-12]
  88:Middlewares/Third_Party/RealThread_RTOS_RT-Thread/libcpu/arm/cortex-m3/cpuport.c ****     stack_frame->exception_stack_frame.psr = 0x01000000L;              /* PSR */
 682              		.loc 1 88 5 is_stmt 1 view .LVU149
  88:Middlewares/Third_Party/RealThread_RTOS_RT-Thread/libcpu/arm/cortex-m3/cpuport.c ****     stack_frame->exception_stack_frame.psr = 0x01000000L;              /* PSR */
 683              		.loc 1 88 44 is_stmt 0 view .LVU150
 684 0038 45F8086C 		str	r6, [r5, #-8]
  89:Middlewares/Third_Party/RealThread_RTOS_RT-Thread/libcpu/arm/cortex-m3/cpuport.c **** 
 685              		.loc 1 89 5 is_stmt 1 view .LVU151
  89:Middlewares/Third_Party/RealThread_RTOS_RT-Thread/libcpu/arm/cortex-m3/cpuport.c **** 
 686              		.loc 1 89 44 is_stmt 0 view .LVU152
 687 003c 4FF08073 		mov	r3, #16777216
 688              	.LVL38:
  89:Middlewares/Third_Party/RealThread_RTOS_RT-Thread/libcpu/arm/cortex-m3/cpuport.c **** 
 689              		.loc 1 89 44 view .LVU153
 690 0040 45F8043C 		str	r3, [r5, #-4]
  92:Middlewares/Third_Party/RealThread_RTOS_RT-Thread/libcpu/arm/cortex-m3/cpuport.c **** }
 691              		.loc 1 92 5 is_stmt 1 view .LVU154
  93:Middlewares/Third_Party/RealThread_RTOS_RT-Thread/libcpu/arm/cortex-m3/cpuport.c **** 
 692              		.loc 1 93 1 is_stmt 0 view .LVU155
 693 0044 70BC     		pop	{r4, r5, r6}
 694              	.LCFI5:
 695              		.cfi_restore 6
 696              		.cfi_restore 5
 697              		.cfi_restore 4
 698              		.cfi_def_cfa_offset 0
 699              	.LVL39:
  93:Middlewares/Third_Party/RealThread_RTOS_RT-Thread/libcpu/arm/cortex-m3/cpuport.c **** 
 700              		.loc 1 93 1 view .LVU156
 701 0046 7047     		bx	lr
 702              	.L69:
 703              		.align	2
 704              	.L68:
 705 0048 EFBEADDE 		.word	-559038737
 706              		.cfi_endproc
 707              	.LFE15:
 709              		.section	.text.rt_hw_exception_install,"ax",%progbits
 710              		.align	1
 711              		.global	rt_hw_exception_install
 712              		.syntax unified
 713              		.thumb
 714              		.thumb_func
 715              		.fpu softvfp
 717              	rt_hw_exception_install:
 718              	.LVL40:
 719              	.LFB16:
 101:Middlewares/Third_Party/RealThread_RTOS_RT-Thread/libcpu/arm/cortex-m3/cpuport.c ****     rt_exception_hook = exception_handle;
 720              		.loc 1 101 1 is_stmt 1 view -0
ARM GAS  C:\Users\GKQ\AppData\Local\Temp\ccBmEnAf.s 			page 21


 721              		.cfi_startproc
 722              		@ args = 0, pretend = 0, frame = 0
 723              		@ frame_needed = 0, uses_anonymous_args = 0
 724              		@ link register save eliminated.
 102:Middlewares/Third_Party/RealThread_RTOS_RT-Thread/libcpu/arm/cortex-m3/cpuport.c **** }
 725              		.loc 1 102 5 view .LVU158
 102:Middlewares/Third_Party/RealThread_RTOS_RT-Thread/libcpu/arm/cortex-m3/cpuport.c **** }
 726              		.loc 1 102 23 is_stmt 0 view .LVU159
 727 0000 014B     		ldr	r3, .L71
 728 0002 1860     		str	r0, [r3]
 103:Middlewares/Third_Party/RealThread_RTOS_RT-Thread/libcpu/arm/cortex-m3/cpuport.c **** 
 729              		.loc 1 103 1 view .LVU160
 730 0004 7047     		bx	lr
 731              	.L72:
 732 0006 00BF     		.align	2
 733              	.L71:
 734 0008 00000000 		.word	.LANCHOR0
 735              		.cfi_endproc
 736              	.LFE16:
 738              		.section	.rodata.rt_hw_hard_fault_exception.str1.4,"aMS",%progbits,1
 739              		.align	2
 740              	.LC26:
 741 0000 7073723A 		.ascii	"psr: 0x%08x\012\000"
 741      20307825 
 741      3038780A 
 741      00
 742 000d 000000   		.align	2
 743              	.LC27:
 744 0010 7230303A 		.ascii	"r00: 0x%08x\012\000"
 744      20307825 
 744      3038780A 
 744      00
 745 001d 000000   		.align	2
 746              	.LC28:
 747 0020 7230313A 		.ascii	"r01: 0x%08x\012\000"
 747      20307825 
 747      3038780A 
 747      00
 748 002d 000000   		.align	2
 749              	.LC29:
 750 0030 7230323A 		.ascii	"r02: 0x%08x\012\000"
 750      20307825 
 750      3038780A 
 750      00
 751 003d 000000   		.align	2
 752              	.LC30:
 753 0040 7230333A 		.ascii	"r03: 0x%08x\012\000"
 753      20307825 
 753      3038780A 
 753      00
 754 004d 000000   		.align	2
 755              	.LC31:
 756 0050 7230343A 		.ascii	"r04: 0x%08x\012\000"
 756      20307825 
 756      3038780A 
 756      00
 757 005d 000000   		.align	2
ARM GAS  C:\Users\GKQ\AppData\Local\Temp\ccBmEnAf.s 			page 22


 758              	.LC32:
 759 0060 7230353A 		.ascii	"r05: 0x%08x\012\000"
 759      20307825 
 759      3038780A 
 759      00
 760 006d 000000   		.align	2
 761              	.LC33:
 762 0070 7230363A 		.ascii	"r06: 0x%08x\012\000"
 762      20307825 
 762      3038780A 
 762      00
 763 007d 000000   		.align	2
 764              	.LC34:
 765 0080 7230373A 		.ascii	"r07: 0x%08x\012\000"
 765      20307825 
 765      3038780A 
 765      00
 766 008d 000000   		.align	2
 767              	.LC35:
 768 0090 7230383A 		.ascii	"r08: 0x%08x\012\000"
 768      20307825 
 768      3038780A 
 768      00
 769 009d 000000   		.align	2
 770              	.LC36:
 771 00a0 7230393A 		.ascii	"r09: 0x%08x\012\000"
 771      20307825 
 771      3038780A 
 771      00
 772 00ad 000000   		.align	2
 773              	.LC37:
 774 00b0 7231303A 		.ascii	"r10: 0x%08x\012\000"
 774      20307825 
 774      3038780A 
 774      00
 775 00bd 000000   		.align	2
 776              	.LC38:
 777 00c0 7231313A 		.ascii	"r11: 0x%08x\012\000"
 777      20307825 
 777      3038780A 
 777      00
 778 00cd 000000   		.align	2
 779              	.LC39:
 780 00d0 7231323A 		.ascii	"r12: 0x%08x\012\000"
 780      20307825 
 780      3038780A 
 780      00
 781 00dd 000000   		.align	2
 782              	.LC40:
 783 00e0 206C723A 		.ascii	" lr: 0x%08x\012\000"
 783      20307825 
 783      3038780A 
 783      00
 784 00ed 000000   		.align	2
 785              	.LC41:
 786 00f0 2070633A 		.ascii	" pc: 0x%08x\012\000"
 786      20307825 
ARM GAS  C:\Users\GKQ\AppData\Local\Temp\ccBmEnAf.s 			page 23


 786      3038780A 
 786      00
 787 00fd 000000   		.align	2
 788              	.LC42:
 789 0100 68617264 		.ascii	"hard fault on thread: %s\015\012\015\012\000"
 789      20666175 
 789      6C74206F 
 789      6E207468 
 789      72656164 
 790 011d 000000   		.align	2
 791              	.LC43:
 792 0120 68617264 		.ascii	"hard fault on handler\015\012\015\012\000"
 792      20666175 
 792      6C74206F 
 792      6E206861 
 792      6E646C65 
 793              		.section	.text.rt_hw_hard_fault_exception,"ax",%progbits
 794              		.align	1
 795              		.global	rt_hw_hard_fault_exception
 796              		.syntax unified
 797              		.thumb
 798              		.thumb_func
 799              		.fpu softvfp
 801              	rt_hw_hard_fault_exception:
 802              	.LVL41:
 803              	.LFB21:
 280:Middlewares/Third_Party/RealThread_RTOS_RT-Thread/libcpu/arm/cortex-m3/cpuport.c **** #endif /* RT_USING_FINSH */
 281:Middlewares/Third_Party/RealThread_RTOS_RT-Thread/libcpu/arm/cortex-m3/cpuport.c **** 
 282:Middlewares/Third_Party/RealThread_RTOS_RT-Thread/libcpu/arm/cortex-m3/cpuport.c **** struct exception_info
 283:Middlewares/Third_Party/RealThread_RTOS_RT-Thread/libcpu/arm/cortex-m3/cpuport.c **** {
 284:Middlewares/Third_Party/RealThread_RTOS_RT-Thread/libcpu/arm/cortex-m3/cpuport.c ****     rt_uint32_t exc_return;
 285:Middlewares/Third_Party/RealThread_RTOS_RT-Thread/libcpu/arm/cortex-m3/cpuport.c ****     struct stack_frame stack_frame;
 286:Middlewares/Third_Party/RealThread_RTOS_RT-Thread/libcpu/arm/cortex-m3/cpuport.c **** };
 287:Middlewares/Third_Party/RealThread_RTOS_RT-Thread/libcpu/arm/cortex-m3/cpuport.c **** 
 288:Middlewares/Third_Party/RealThread_RTOS_RT-Thread/libcpu/arm/cortex-m3/cpuport.c **** /*
 289:Middlewares/Third_Party/RealThread_RTOS_RT-Thread/libcpu/arm/cortex-m3/cpuport.c ****  * fault exception handler
 290:Middlewares/Third_Party/RealThread_RTOS_RT-Thread/libcpu/arm/cortex-m3/cpuport.c ****  */
 291:Middlewares/Third_Party/RealThread_RTOS_RT-Thread/libcpu/arm/cortex-m3/cpuport.c **** void rt_hw_hard_fault_exception(struct exception_info * exception_info)
 292:Middlewares/Third_Party/RealThread_RTOS_RT-Thread/libcpu/arm/cortex-m3/cpuport.c **** {
 804              		.loc 1 292 1 is_stmt 1 view -0
 805              		.cfi_startproc
 806              		@ args = 0, pretend = 0, frame = 0
 807              		@ frame_needed = 0, uses_anonymous_args = 0
 808              		.loc 1 292 1 is_stmt 0 view .LVU162
 809 0000 10B5     		push	{r4, lr}
 810              	.LCFI6:
 811              		.cfi_def_cfa_offset 8
 812              		.cfi_offset 4, -8
 813              		.cfi_offset 14, -4
 814 0002 0446     		mov	r4, r0
 293:Middlewares/Third_Party/RealThread_RTOS_RT-Thread/libcpu/arm/cortex-m3/cpuport.c ****     extern long list_thread(void);
 815              		.loc 1 293 5 is_stmt 1 view .LVU163
 294:Middlewares/Third_Party/RealThread_RTOS_RT-Thread/libcpu/arm/cortex-m3/cpuport.c ****     struct stack_frame* context = &exception_info->stack_frame;
 816              		.loc 1 294 5 view .LVU164
 817              	.LVL42:
 295:Middlewares/Third_Party/RealThread_RTOS_RT-Thread/libcpu/arm/cortex-m3/cpuport.c **** 
 296:Middlewares/Third_Party/RealThread_RTOS_RT-Thread/libcpu/arm/cortex-m3/cpuport.c ****     if (rt_exception_hook != RT_NULL)
ARM GAS  C:\Users\GKQ\AppData\Local\Temp\ccBmEnAf.s 			page 24


 818              		.loc 1 296 5 view .LVU165
 819              		.loc 1 296 27 is_stmt 0 view .LVU166
 820 0004 2C4B     		ldr	r3, .L80
 821 0006 1B68     		ldr	r3, [r3]
 822              		.loc 1 296 8 view .LVU167
 823 0008 13B1     		cbz	r3, .L74
 824              	.LBB2:
 297:Middlewares/Third_Party/RealThread_RTOS_RT-Thread/libcpu/arm/cortex-m3/cpuport.c ****     {
 298:Middlewares/Third_Party/RealThread_RTOS_RT-Thread/libcpu/arm/cortex-m3/cpuport.c ****         rt_err_t result;
 825              		.loc 1 298 9 is_stmt 1 view .LVU168
 299:Middlewares/Third_Party/RealThread_RTOS_RT-Thread/libcpu/arm/cortex-m3/cpuport.c **** 
 300:Middlewares/Third_Party/RealThread_RTOS_RT-Thread/libcpu/arm/cortex-m3/cpuport.c ****         result = rt_exception_hook(exception_info);
 826              		.loc 1 300 9 view .LVU169
 827              		.loc 1 300 18 is_stmt 0 view .LVU170
 828 000a 9847     		blx	r3
 829              	.LVL43:
 301:Middlewares/Third_Party/RealThread_RTOS_RT-Thread/libcpu/arm/cortex-m3/cpuport.c ****         if (result == RT_EOK)
 830              		.loc 1 301 9 is_stmt 1 view .LVU171
 831              		.loc 1 301 12 is_stmt 0 view .LVU172
 832 000c 0028     		cmp	r0, #0
 833 000e 52D0     		beq	.L78
 834              	.LVL44:
 835              	.L74:
 836              		.loc 1 301 12 view .LVU173
 837              	.LBE2:
 302:Middlewares/Third_Party/RealThread_RTOS_RT-Thread/libcpu/arm/cortex-m3/cpuport.c ****             return;
 303:Middlewares/Third_Party/RealThread_RTOS_RT-Thread/libcpu/arm/cortex-m3/cpuport.c ****     }
 304:Middlewares/Third_Party/RealThread_RTOS_RT-Thread/libcpu/arm/cortex-m3/cpuport.c **** 
 305:Middlewares/Third_Party/RealThread_RTOS_RT-Thread/libcpu/arm/cortex-m3/cpuport.c ****     rt_kprintf("psr: 0x%08x\n", context->exception_stack_frame.psr);
 838              		.loc 1 305 5 is_stmt 1 view .LVU174
 839 0010 216C     		ldr	r1, [r4, #64]
 840 0012 2A48     		ldr	r0, .L80+4
 841 0014 FFF7FEFF 		bl	rt_kprintf
 842              	.LVL45:
 306:Middlewares/Third_Party/RealThread_RTOS_RT-Thread/libcpu/arm/cortex-m3/cpuport.c **** 
 307:Middlewares/Third_Party/RealThread_RTOS_RT-Thread/libcpu/arm/cortex-m3/cpuport.c ****     rt_kprintf("r00: 0x%08x\n", context->exception_stack_frame.r0);
 843              		.loc 1 307 5 view .LVU175
 844 0018 616A     		ldr	r1, [r4, #36]
 845 001a 2948     		ldr	r0, .L80+8
 846 001c FFF7FEFF 		bl	rt_kprintf
 847              	.LVL46:
 308:Middlewares/Third_Party/RealThread_RTOS_RT-Thread/libcpu/arm/cortex-m3/cpuport.c ****     rt_kprintf("r01: 0x%08x\n", context->exception_stack_frame.r1);
 848              		.loc 1 308 5 view .LVU176
 849 0020 A16A     		ldr	r1, [r4, #40]
 850 0022 2848     		ldr	r0, .L80+12
 851 0024 FFF7FEFF 		bl	rt_kprintf
 852              	.LVL47:
 309:Middlewares/Third_Party/RealThread_RTOS_RT-Thread/libcpu/arm/cortex-m3/cpuport.c ****     rt_kprintf("r02: 0x%08x\n", context->exception_stack_frame.r2);
 853              		.loc 1 309 5 view .LVU177
 854 0028 E16A     		ldr	r1, [r4, #44]
 855 002a 2748     		ldr	r0, .L80+16
 856 002c FFF7FEFF 		bl	rt_kprintf
 857              	.LVL48:
 310:Middlewares/Third_Party/RealThread_RTOS_RT-Thread/libcpu/arm/cortex-m3/cpuport.c ****     rt_kprintf("r03: 0x%08x\n", context->exception_stack_frame.r3);
 858              		.loc 1 310 5 view .LVU178
 859 0030 216B     		ldr	r1, [r4, #48]
 860 0032 2648     		ldr	r0, .L80+20
ARM GAS  C:\Users\GKQ\AppData\Local\Temp\ccBmEnAf.s 			page 25


 861 0034 FFF7FEFF 		bl	rt_kprintf
 862              	.LVL49:
 311:Middlewares/Third_Party/RealThread_RTOS_RT-Thread/libcpu/arm/cortex-m3/cpuport.c ****     rt_kprintf("r04: 0x%08x\n", context->r4);
 863              		.loc 1 311 5 view .LVU179
 864 0038 6168     		ldr	r1, [r4, #4]
 865 003a 2548     		ldr	r0, .L80+24
 866 003c FFF7FEFF 		bl	rt_kprintf
 867              	.LVL50:
 312:Middlewares/Third_Party/RealThread_RTOS_RT-Thread/libcpu/arm/cortex-m3/cpuport.c ****     rt_kprintf("r05: 0x%08x\n", context->r5);
 868              		.loc 1 312 5 view .LVU180
 869 0040 A168     		ldr	r1, [r4, #8]
 870 0042 2448     		ldr	r0, .L80+28
 871 0044 FFF7FEFF 		bl	rt_kprintf
 872              	.LVL51:
 313:Middlewares/Third_Party/RealThread_RTOS_RT-Thread/libcpu/arm/cortex-m3/cpuport.c ****     rt_kprintf("r06: 0x%08x\n", context->r6);
 873              		.loc 1 313 5 view .LVU181
 874 0048 E168     		ldr	r1, [r4, #12]
 875 004a 2348     		ldr	r0, .L80+32
 876 004c FFF7FEFF 		bl	rt_kprintf
 877              	.LVL52:
 314:Middlewares/Third_Party/RealThread_RTOS_RT-Thread/libcpu/arm/cortex-m3/cpuport.c ****     rt_kprintf("r07: 0x%08x\n", context->r7);
 878              		.loc 1 314 5 view .LVU182
 879 0050 2169     		ldr	r1, [r4, #16]
 880 0052 2248     		ldr	r0, .L80+36
 881 0054 FFF7FEFF 		bl	rt_kprintf
 882              	.LVL53:
 315:Middlewares/Third_Party/RealThread_RTOS_RT-Thread/libcpu/arm/cortex-m3/cpuport.c ****     rt_kprintf("r08: 0x%08x\n", context->r8);
 883              		.loc 1 315 5 view .LVU183
 884 0058 6169     		ldr	r1, [r4, #20]
 885 005a 2148     		ldr	r0, .L80+40
 886 005c FFF7FEFF 		bl	rt_kprintf
 887              	.LVL54:
 316:Middlewares/Third_Party/RealThread_RTOS_RT-Thread/libcpu/arm/cortex-m3/cpuport.c ****     rt_kprintf("r09: 0x%08x\n", context->r9);
 888              		.loc 1 316 5 view .LVU184
 889 0060 A169     		ldr	r1, [r4, #24]
 890 0062 2048     		ldr	r0, .L80+44
 891 0064 FFF7FEFF 		bl	rt_kprintf
 892              	.LVL55:
 317:Middlewares/Third_Party/RealThread_RTOS_RT-Thread/libcpu/arm/cortex-m3/cpuport.c ****     rt_kprintf("r10: 0x%08x\n", context->r10);
 893              		.loc 1 317 5 view .LVU185
 894 0068 E169     		ldr	r1, [r4, #28]
 895 006a 1F48     		ldr	r0, .L80+48
 896 006c FFF7FEFF 		bl	rt_kprintf
 897              	.LVL56:
 318:Middlewares/Third_Party/RealThread_RTOS_RT-Thread/libcpu/arm/cortex-m3/cpuport.c ****     rt_kprintf("r11: 0x%08x\n", context->r11);
 898              		.loc 1 318 5 view .LVU186
 899 0070 216A     		ldr	r1, [r4, #32]
 900 0072 1E48     		ldr	r0, .L80+52
 901 0074 FFF7FEFF 		bl	rt_kprintf
 902              	.LVL57:
 319:Middlewares/Third_Party/RealThread_RTOS_RT-Thread/libcpu/arm/cortex-m3/cpuport.c ****     rt_kprintf("r12: 0x%08x\n", context->exception_stack_frame.r12);
 903              		.loc 1 319 5 view .LVU187
 904 0078 616B     		ldr	r1, [r4, #52]
 905 007a 1D48     		ldr	r0, .L80+56
 906 007c FFF7FEFF 		bl	rt_kprintf
 907              	.LVL58:
 320:Middlewares/Third_Party/RealThread_RTOS_RT-Thread/libcpu/arm/cortex-m3/cpuport.c ****     rt_kprintf(" lr: 0x%08x\n", context->exception_stack_frame.lr);
ARM GAS  C:\Users\GKQ\AppData\Local\Temp\ccBmEnAf.s 			page 26


 908              		.loc 1 320 5 view .LVU188
 909 0080 A16B     		ldr	r1, [r4, #56]
 910 0082 1C48     		ldr	r0, .L80+60
 911 0084 FFF7FEFF 		bl	rt_kprintf
 912              	.LVL59:
 321:Middlewares/Third_Party/RealThread_RTOS_RT-Thread/libcpu/arm/cortex-m3/cpuport.c ****     rt_kprintf(" pc: 0x%08x\n", context->exception_stack_frame.pc);
 913              		.loc 1 321 5 view .LVU189
 914 0088 E16B     		ldr	r1, [r4, #60]
 915 008a 1B48     		ldr	r0, .L80+64
 916 008c FFF7FEFF 		bl	rt_kprintf
 917              	.LVL60:
 322:Middlewares/Third_Party/RealThread_RTOS_RT-Thread/libcpu/arm/cortex-m3/cpuport.c **** 
 323:Middlewares/Third_Party/RealThread_RTOS_RT-Thread/libcpu/arm/cortex-m3/cpuport.c ****     if(exception_info->exc_return & (1 << 2) )
 918              		.loc 1 323 5 view .LVU190
 919              		.loc 1 323 22 is_stmt 0 view .LVU191
 920 0090 2368     		ldr	r3, [r4]
 921              		.loc 1 323 7 view .LVU192
 922 0092 13F0040F 		tst	r3, #4
 923 0096 0AD0     		beq	.L75
 324:Middlewares/Third_Party/RealThread_RTOS_RT-Thread/libcpu/arm/cortex-m3/cpuport.c ****     {
 325:Middlewares/Third_Party/RealThread_RTOS_RT-Thread/libcpu/arm/cortex-m3/cpuport.c ****         rt_kprintf("hard fault on thread: %s\r\n\r\n", rt_thread_self()->name);
 924              		.loc 1 325 9 is_stmt 1 view .LVU193
 925              		.loc 1 325 56 is_stmt 0 view .LVU194
 926 0098 FFF7FEFF 		bl	rt_thread_self
 927              	.LVL61:
 928 009c 0146     		mov	r1, r0
 929              		.loc 1 325 9 view .LVU195
 930 009e 1748     		ldr	r0, .L80+68
 931 00a0 FFF7FEFF 		bl	rt_kprintf
 932              	.LVL62:
 326:Middlewares/Third_Party/RealThread_RTOS_RT-Thread/libcpu/arm/cortex-m3/cpuport.c **** 
 327:Middlewares/Third_Party/RealThread_RTOS_RT-Thread/libcpu/arm/cortex-m3/cpuport.c **** #ifdef RT_USING_FINSH
 328:Middlewares/Third_Party/RealThread_RTOS_RT-Thread/libcpu/arm/cortex-m3/cpuport.c ****         list_thread();
 933              		.loc 1 328 9 is_stmt 1 view .LVU196
 934 00a4 FFF7FEFF 		bl	list_thread
 935              	.LVL63:
 936              	.L76:
 329:Middlewares/Third_Party/RealThread_RTOS_RT-Thread/libcpu/arm/cortex-m3/cpuport.c **** #endif /* RT_USING_FINSH */
 330:Middlewares/Third_Party/RealThread_RTOS_RT-Thread/libcpu/arm/cortex-m3/cpuport.c ****     }
 331:Middlewares/Third_Party/RealThread_RTOS_RT-Thread/libcpu/arm/cortex-m3/cpuport.c ****     else
 332:Middlewares/Third_Party/RealThread_RTOS_RT-Thread/libcpu/arm/cortex-m3/cpuport.c ****     {
 333:Middlewares/Third_Party/RealThread_RTOS_RT-Thread/libcpu/arm/cortex-m3/cpuport.c ****         rt_kprintf("hard fault on handler\r\n\r\n");
 334:Middlewares/Third_Party/RealThread_RTOS_RT-Thread/libcpu/arm/cortex-m3/cpuport.c ****     }
 335:Middlewares/Third_Party/RealThread_RTOS_RT-Thread/libcpu/arm/cortex-m3/cpuport.c **** 
 336:Middlewares/Third_Party/RealThread_RTOS_RT-Thread/libcpu/arm/cortex-m3/cpuport.c **** #ifdef RT_USING_FINSH
 337:Middlewares/Third_Party/RealThread_RTOS_RT-Thread/libcpu/arm/cortex-m3/cpuport.c ****     hard_fault_track();
 937              		.loc 1 337 5 view .LVU197
 938 00a8 FFF7FEFF 		bl	hard_fault_track
 939              	.LVL64:
 940              	.L77:
 338:Middlewares/Third_Party/RealThread_RTOS_RT-Thread/libcpu/arm/cortex-m3/cpuport.c **** #endif /* RT_USING_FINSH */
 339:Middlewares/Third_Party/RealThread_RTOS_RT-Thread/libcpu/arm/cortex-m3/cpuport.c **** 
 340:Middlewares/Third_Party/RealThread_RTOS_RT-Thread/libcpu/arm/cortex-m3/cpuport.c ****     while (1);
 941              		.loc 1 340 5 discriminator 1 view .LVU198
 942              		.loc 1 340 14 discriminator 1 view .LVU199
 943              		.loc 1 340 11 discriminator 1 view .LVU200
 944 00ac FEE7     		b	.L77
ARM GAS  C:\Users\GKQ\AppData\Local\Temp\ccBmEnAf.s 			page 27


 945              	.L75:
 333:Middlewares/Third_Party/RealThread_RTOS_RT-Thread/libcpu/arm/cortex-m3/cpuport.c ****     }
 946              		.loc 1 333 9 view .LVU201
 947 00ae 1448     		ldr	r0, .L80+72
 948 00b0 FFF7FEFF 		bl	rt_kprintf
 949              	.LVL65:
 950 00b4 F8E7     		b	.L76
 951              	.LVL66:
 952              	.L78:
 341:Middlewares/Third_Party/RealThread_RTOS_RT-Thread/libcpu/arm/cortex-m3/cpuport.c **** }
 953              		.loc 1 341 1 is_stmt 0 view .LVU202
 954 00b6 10BD     		pop	{r4, pc}
 955              	.LVL67:
 956              	.L81:
 957              		.loc 1 341 1 view .LVU203
 958              		.align	2
 959              	.L80:
 960 00b8 00000000 		.word	.LANCHOR0
 961 00bc 00000000 		.word	.LC26
 962 00c0 10000000 		.word	.LC27
 963 00c4 20000000 		.word	.LC28
 964 00c8 30000000 		.word	.LC29
 965 00cc 40000000 		.word	.LC30
 966 00d0 50000000 		.word	.LC31
 967 00d4 60000000 		.word	.LC32
 968 00d8 70000000 		.word	.LC33
 969 00dc 80000000 		.word	.LC34
 970 00e0 90000000 		.word	.LC35
 971 00e4 A0000000 		.word	.LC36
 972 00e8 B0000000 		.word	.LC37
 973 00ec C0000000 		.word	.LC38
 974 00f0 D0000000 		.word	.LC39
 975 00f4 E0000000 		.word	.LC40
 976 00f8 F0000000 		.word	.LC41
 977 00fc 00010000 		.word	.LC42
 978 0100 20010000 		.word	.LC43
 979              		.cfi_endproc
 980              	.LFE21:
 982              		.section	.rodata.rt_hw_cpu_shutdown.str1.4,"aMS",%progbits,1
 983              		.align	2
 984              	.LC44:
 985 0000 73687574 		.ascii	"shutdown...\012\000"
 985      646F776E 
 985      2E2E2E0A 
 985      00
 986              		.section	.text.rt_hw_cpu_shutdown,"ax",%progbits
 987              		.align	1
 988              		.global	rt_hw_cpu_shutdown
 989              		.syntax unified
 990              		.thumb
 991              		.thumb_func
 992              		.fpu softvfp
 994              	rt_hw_cpu_shutdown:
 995              	.LFB22:
 342:Middlewares/Third_Party/RealThread_RTOS_RT-Thread/libcpu/arm/cortex-m3/cpuport.c **** 
 343:Middlewares/Third_Party/RealThread_RTOS_RT-Thread/libcpu/arm/cortex-m3/cpuport.c **** /**
 344:Middlewares/Third_Party/RealThread_RTOS_RT-Thread/libcpu/arm/cortex-m3/cpuport.c ****  * shutdown CPU
ARM GAS  C:\Users\GKQ\AppData\Local\Temp\ccBmEnAf.s 			page 28


 345:Middlewares/Third_Party/RealThread_RTOS_RT-Thread/libcpu/arm/cortex-m3/cpuport.c ****  */
 346:Middlewares/Third_Party/RealThread_RTOS_RT-Thread/libcpu/arm/cortex-m3/cpuport.c **** void rt_hw_cpu_shutdown(void)
 347:Middlewares/Third_Party/RealThread_RTOS_RT-Thread/libcpu/arm/cortex-m3/cpuport.c **** {
 996              		.loc 1 347 1 is_stmt 1 view -0
 997              		.cfi_startproc
 998              		@ args = 0, pretend = 0, frame = 0
 999              		@ frame_needed = 0, uses_anonymous_args = 0
 1000 0000 08B5     		push	{r3, lr}
 1001              	.LCFI7:
 1002              		.cfi_def_cfa_offset 8
 1003              		.cfi_offset 3, -8
 1004              		.cfi_offset 14, -4
 348:Middlewares/Third_Party/RealThread_RTOS_RT-Thread/libcpu/arm/cortex-m3/cpuport.c ****     rt_kprintf("shutdown...\n");
 1005              		.loc 1 348 5 view .LVU205
 1006 0002 0248     		ldr	r0, .L84
 1007 0004 FFF7FEFF 		bl	rt_kprintf
 1008              	.LVL68:
 349:Middlewares/Third_Party/RealThread_RTOS_RT-Thread/libcpu/arm/cortex-m3/cpuport.c **** 
 350:Middlewares/Third_Party/RealThread_RTOS_RT-Thread/libcpu/arm/cortex-m3/cpuport.c ****     RT_ASSERT(0);
 1009              		.loc 1 350 17 view .LVU206
 351:Middlewares/Third_Party/RealThread_RTOS_RT-Thread/libcpu/arm/cortex-m3/cpuport.c **** }
 1010              		.loc 1 351 1 is_stmt 0 view .LVU207
 1011 0008 08BD     		pop	{r3, pc}
 1012              	.L85:
 1013 000a 00BF     		.align	2
 1014              	.L84:
 1015 000c 00000000 		.word	.LC44
 1016              		.cfi_endproc
 1017              	.LFE22:
 1019              		.section	.text.rt_hw_cpu_reset,"ax",%progbits
 1020              		.align	1
 1021              		.weak	rt_hw_cpu_reset
 1022              		.syntax unified
 1023              		.thumb
 1024              		.thumb_func
 1025              		.fpu softvfp
 1027              	rt_hw_cpu_reset:
 1028              	.LFB23:
 352:Middlewares/Third_Party/RealThread_RTOS_RT-Thread/libcpu/arm/cortex-m3/cpuport.c **** 
 353:Middlewares/Third_Party/RealThread_RTOS_RT-Thread/libcpu/arm/cortex-m3/cpuport.c **** /**
 354:Middlewares/Third_Party/RealThread_RTOS_RT-Thread/libcpu/arm/cortex-m3/cpuport.c ****  * reset CPU
 355:Middlewares/Third_Party/RealThread_RTOS_RT-Thread/libcpu/arm/cortex-m3/cpuport.c ****  */
 356:Middlewares/Third_Party/RealThread_RTOS_RT-Thread/libcpu/arm/cortex-m3/cpuport.c **** RT_WEAK void rt_hw_cpu_reset(void)
 357:Middlewares/Third_Party/RealThread_RTOS_RT-Thread/libcpu/arm/cortex-m3/cpuport.c **** {
 1029              		.loc 1 357 1 is_stmt 1 view -0
 1030              		.cfi_startproc
 1031              		@ args = 0, pretend = 0, frame = 0
 1032              		@ frame_needed = 0, uses_anonymous_args = 0
 1033              		@ link register save eliminated.
 358:Middlewares/Third_Party/RealThread_RTOS_RT-Thread/libcpu/arm/cortex-m3/cpuport.c ****     SCB_AIRCR = SCB_RESET_VALUE;
 1034              		.loc 1 358 5 view .LVU209
 1035              		.loc 1 358 15 is_stmt 0 view .LVU210
 1036 0000 014B     		ldr	r3, .L87
 1037 0002 024A     		ldr	r2, .L87+4
 1038 0004 1A60     		str	r2, [r3]
 359:Middlewares/Third_Party/RealThread_RTOS_RT-Thread/libcpu/arm/cortex-m3/cpuport.c **** }
 1039              		.loc 1 359 1 view .LVU211
ARM GAS  C:\Users\GKQ\AppData\Local\Temp\ccBmEnAf.s 			page 29


 1040 0006 7047     		bx	lr
 1041              	.L88:
 1042              		.align	2
 1043              	.L87:
 1044 0008 0CED00E0 		.word	-536810228
 1045 000c 0400FA05 		.word	100270084
 1046              		.cfi_endproc
 1047              	.LFE23:
 1049              		.comm	rt_thread_switch_interrupt_flag,4,4
 1050              		.comm	rt_interrupt_to_thread,4,4
 1051              		.comm	rt_interrupt_from_thread,4,4
 1052              		.section	.bss.rt_exception_hook,"aw",%nobits
 1053              		.align	2
 1054              		.set	.LANCHOR0,. + 0
 1057              	rt_exception_hook:
 1058 0000 00000000 		.space	4
 1059              		.text
 1060              	.Letext0:
 1061              		.file 2 "Middlewares/Third_Party/RealThread_RTOS_RT-Thread/include/rtdef.h"
 1062              		.file 3 "Middlewares/Third_Party/RealThread_RTOS_RT-Thread/components/finsh/finsh_api.h"
 1063              		.file 4 "Middlewares/Third_Party/RealThread_RTOS_RT-Thread/include/rtthread.h"
ARM GAS  C:\Users\GKQ\AppData\Local\Temp\ccBmEnAf.s 			page 30

