ARM GAS  C:\Users\GKQ\AppData\Local\Temp\ccAKSbHb.s 			page 1


   1              		.cpu cortex-m3
   2              		.eabi_attribute 20, 1
   3              		.eabi_attribute 21, 1
   4              		.eabi_attribute 23, 3
   5              		.eabi_attribute 24, 1
   6              		.eabi_attribute 25, 1
   7              		.eabi_attribute 26, 1
   8              		.eabi_attribute 30, 1
   9              		.eabi_attribute 34, 1
  10              		.eabi_attribute 18, 4
  11              		.file	"ipc.c"
  12              		.text
  13              	.Ltext0:
  14              		.cfi_sections	.debug_frame
  15              		.section	.text.rt_sem_init,"ax",%progbits
  16              		.align	1
  17              		.global	rt_sem_init
  18              		.arch armv7-m
  19              		.syntax unified
  20              		.thumb
  21              		.thumb_func
  22              		.fpu softvfp
  24              	rt_sem_init:
  25              	.LVL0:
  26              	.LFB19:
  27              		.file 1 "Middlewares/Third_Party/RealThread_RTOS_RT-Thread/src/ipc.c"
   1:Middlewares/Third_Party/RealThread_RTOS_RT-Thread/src/ipc.c **** /*
   2:Middlewares/Third_Party/RealThread_RTOS_RT-Thread/src/ipc.c ****  * Copyright (c) 2006-2018, RT-Thread Development Team
   3:Middlewares/Third_Party/RealThread_RTOS_RT-Thread/src/ipc.c ****  *
   4:Middlewares/Third_Party/RealThread_RTOS_RT-Thread/src/ipc.c ****  * SPDX-License-Identifier: Apache-2.0
   5:Middlewares/Third_Party/RealThread_RTOS_RT-Thread/src/ipc.c ****  *
   6:Middlewares/Third_Party/RealThread_RTOS_RT-Thread/src/ipc.c ****  * Change Logs:
   7:Middlewares/Third_Party/RealThread_RTOS_RT-Thread/src/ipc.c ****  * Date           Author       Notes
   8:Middlewares/Third_Party/RealThread_RTOS_RT-Thread/src/ipc.c ****  * 2006-03-14     Bernard      the first version
   9:Middlewares/Third_Party/RealThread_RTOS_RT-Thread/src/ipc.c ****  * 2006-04-25     Bernard      implement semaphore
  10:Middlewares/Third_Party/RealThread_RTOS_RT-Thread/src/ipc.c ****  * 2006-05-03     Bernard      add RT_IPC_DEBUG
  11:Middlewares/Third_Party/RealThread_RTOS_RT-Thread/src/ipc.c ****  *                             modify the type of IPC waiting time to rt_int32_t
  12:Middlewares/Third_Party/RealThread_RTOS_RT-Thread/src/ipc.c ****  * 2006-05-10     Bernard      fix the semaphore take bug and add IPC object
  13:Middlewares/Third_Party/RealThread_RTOS_RT-Thread/src/ipc.c ****  * 2006-05-12     Bernard      implement mailbox and message queue
  14:Middlewares/Third_Party/RealThread_RTOS_RT-Thread/src/ipc.c ****  * 2006-05-20     Bernard      implement mutex
  15:Middlewares/Third_Party/RealThread_RTOS_RT-Thread/src/ipc.c ****  * 2006-05-23     Bernard      implement fast event
  16:Middlewares/Third_Party/RealThread_RTOS_RT-Thread/src/ipc.c ****  * 2006-05-24     Bernard      implement event
  17:Middlewares/Third_Party/RealThread_RTOS_RT-Thread/src/ipc.c ****  * 2006-06-03     Bernard      fix the thread timer init bug
  18:Middlewares/Third_Party/RealThread_RTOS_RT-Thread/src/ipc.c ****  * 2006-06-05     Bernard      fix the mutex release bug
  19:Middlewares/Third_Party/RealThread_RTOS_RT-Thread/src/ipc.c ****  * 2006-06-07     Bernard      fix the message queue send bug
  20:Middlewares/Third_Party/RealThread_RTOS_RT-Thread/src/ipc.c ****  * 2006-08-04     Bernard      add hook support
  21:Middlewares/Third_Party/RealThread_RTOS_RT-Thread/src/ipc.c ****  * 2009-05-21     Yi.qiu       fix the sem release bug
  22:Middlewares/Third_Party/RealThread_RTOS_RT-Thread/src/ipc.c ****  * 2009-07-18     Bernard      fix the event clear bug
  23:Middlewares/Third_Party/RealThread_RTOS_RT-Thread/src/ipc.c ****  * 2009-09-09     Bernard      remove fast event and fix ipc release bug
  24:Middlewares/Third_Party/RealThread_RTOS_RT-Thread/src/ipc.c ****  * 2009-10-10     Bernard      change semaphore and mutex value to unsigned value
  25:Middlewares/Third_Party/RealThread_RTOS_RT-Thread/src/ipc.c ****  * 2009-10-25     Bernard      change the mb/mq receive timeout to 0 if the
  26:Middlewares/Third_Party/RealThread_RTOS_RT-Thread/src/ipc.c ****  *                             re-calculated delta tick is a negative number.
  27:Middlewares/Third_Party/RealThread_RTOS_RT-Thread/src/ipc.c ****  * 2009-12-16     Bernard      fix the rt_ipc_object_suspend issue when IPC flag
  28:Middlewares/Third_Party/RealThread_RTOS_RT-Thread/src/ipc.c ****  *                             is RT_IPC_FLAG_PRIO
  29:Middlewares/Third_Party/RealThread_RTOS_RT-Thread/src/ipc.c ****  * 2010-01-20     mbbill       remove rt_ipc_object_decrease function.
  30:Middlewares/Third_Party/RealThread_RTOS_RT-Thread/src/ipc.c ****  * 2010-04-20     Bernard      move memcpy outside interrupt disable in mq
  31:Middlewares/Third_Party/RealThread_RTOS_RT-Thread/src/ipc.c ****  * 2010-10-26     yi.qiu       add module support in rt_mp_delete and rt_mq_delete
ARM GAS  C:\Users\GKQ\AppData\Local\Temp\ccAKSbHb.s 			page 2


  32:Middlewares/Third_Party/RealThread_RTOS_RT-Thread/src/ipc.c ****  * 2010-11-10     Bernard      add IPC reset command implementation.
  33:Middlewares/Third_Party/RealThread_RTOS_RT-Thread/src/ipc.c ****  * 2011-12-18     Bernard      add more parameter checking in message queue
  34:Middlewares/Third_Party/RealThread_RTOS_RT-Thread/src/ipc.c ****  * 2013-09-14     Grissiom     add an option check in rt_event_recv
  35:Middlewares/Third_Party/RealThread_RTOS_RT-Thread/src/ipc.c ****  */
  36:Middlewares/Third_Party/RealThread_RTOS_RT-Thread/src/ipc.c **** 
  37:Middlewares/Third_Party/RealThread_RTOS_RT-Thread/src/ipc.c **** #include <rtthread.h>
  38:Middlewares/Third_Party/RealThread_RTOS_RT-Thread/src/ipc.c **** #include <rthw.h>
  39:Middlewares/Third_Party/RealThread_RTOS_RT-Thread/src/ipc.c **** 
  40:Middlewares/Third_Party/RealThread_RTOS_RT-Thread/src/ipc.c **** #ifdef RT_USING_HOOK
  41:Middlewares/Third_Party/RealThread_RTOS_RT-Thread/src/ipc.c **** extern void (*rt_object_trytake_hook)(struct rt_object *object);
  42:Middlewares/Third_Party/RealThread_RTOS_RT-Thread/src/ipc.c **** extern void (*rt_object_take_hook)(struct rt_object *object);
  43:Middlewares/Third_Party/RealThread_RTOS_RT-Thread/src/ipc.c **** extern void (*rt_object_put_hook)(struct rt_object *object);
  44:Middlewares/Third_Party/RealThread_RTOS_RT-Thread/src/ipc.c **** #endif
  45:Middlewares/Third_Party/RealThread_RTOS_RT-Thread/src/ipc.c **** 
  46:Middlewares/Third_Party/RealThread_RTOS_RT-Thread/src/ipc.c **** /**
  47:Middlewares/Third_Party/RealThread_RTOS_RT-Thread/src/ipc.c ****  * @addtogroup IPC
  48:Middlewares/Third_Party/RealThread_RTOS_RT-Thread/src/ipc.c ****  */
  49:Middlewares/Third_Party/RealThread_RTOS_RT-Thread/src/ipc.c **** 
  50:Middlewares/Third_Party/RealThread_RTOS_RT-Thread/src/ipc.c **** /**@{*/
  51:Middlewares/Third_Party/RealThread_RTOS_RT-Thread/src/ipc.c **** 
  52:Middlewares/Third_Party/RealThread_RTOS_RT-Thread/src/ipc.c **** /**
  53:Middlewares/Third_Party/RealThread_RTOS_RT-Thread/src/ipc.c ****  * This function will initialize an IPC object
  54:Middlewares/Third_Party/RealThread_RTOS_RT-Thread/src/ipc.c ****  *
  55:Middlewares/Third_Party/RealThread_RTOS_RT-Thread/src/ipc.c ****  * @param ipc the IPC object
  56:Middlewares/Third_Party/RealThread_RTOS_RT-Thread/src/ipc.c ****  *
  57:Middlewares/Third_Party/RealThread_RTOS_RT-Thread/src/ipc.c ****  * @return the operation status, RT_EOK on successful
  58:Middlewares/Third_Party/RealThread_RTOS_RT-Thread/src/ipc.c ****  */
  59:Middlewares/Third_Party/RealThread_RTOS_RT-Thread/src/ipc.c **** rt_inline rt_err_t rt_ipc_object_init(struct rt_ipc_object *ipc)
  60:Middlewares/Third_Party/RealThread_RTOS_RT-Thread/src/ipc.c **** {
  61:Middlewares/Third_Party/RealThread_RTOS_RT-Thread/src/ipc.c ****     /* init ipc object */
  62:Middlewares/Third_Party/RealThread_RTOS_RT-Thread/src/ipc.c ****     rt_list_init(&(ipc->suspend_thread));
  63:Middlewares/Third_Party/RealThread_RTOS_RT-Thread/src/ipc.c **** 
  64:Middlewares/Third_Party/RealThread_RTOS_RT-Thread/src/ipc.c ****     return RT_EOK;
  65:Middlewares/Third_Party/RealThread_RTOS_RT-Thread/src/ipc.c **** }
  66:Middlewares/Third_Party/RealThread_RTOS_RT-Thread/src/ipc.c **** 
  67:Middlewares/Third_Party/RealThread_RTOS_RT-Thread/src/ipc.c **** /**
  68:Middlewares/Third_Party/RealThread_RTOS_RT-Thread/src/ipc.c ****  * This function will suspend a thread to a specified list. IPC object or some
  69:Middlewares/Third_Party/RealThread_RTOS_RT-Thread/src/ipc.c ****  * double-queue object (mailbox etc.) contains this kind of list.
  70:Middlewares/Third_Party/RealThread_RTOS_RT-Thread/src/ipc.c ****  *
  71:Middlewares/Third_Party/RealThread_RTOS_RT-Thread/src/ipc.c ****  * @param list the IPC suspended thread list
  72:Middlewares/Third_Party/RealThread_RTOS_RT-Thread/src/ipc.c ****  * @param thread the thread object to be suspended
  73:Middlewares/Third_Party/RealThread_RTOS_RT-Thread/src/ipc.c ****  * @param flag the IPC object flag,
  74:Middlewares/Third_Party/RealThread_RTOS_RT-Thread/src/ipc.c ****  *        which shall be RT_IPC_FLAG_FIFO/RT_IPC_FLAG_PRIO.
  75:Middlewares/Third_Party/RealThread_RTOS_RT-Thread/src/ipc.c ****  *
  76:Middlewares/Third_Party/RealThread_RTOS_RT-Thread/src/ipc.c ****  * @return the operation status, RT_EOK on successful
  77:Middlewares/Third_Party/RealThread_RTOS_RT-Thread/src/ipc.c ****  */
  78:Middlewares/Third_Party/RealThread_RTOS_RT-Thread/src/ipc.c **** rt_inline rt_err_t rt_ipc_list_suspend(rt_list_t        *list,
  79:Middlewares/Third_Party/RealThread_RTOS_RT-Thread/src/ipc.c ****                                        struct rt_thread *thread,
  80:Middlewares/Third_Party/RealThread_RTOS_RT-Thread/src/ipc.c ****                                        rt_uint8_t        flag)
  81:Middlewares/Third_Party/RealThread_RTOS_RT-Thread/src/ipc.c **** {
  82:Middlewares/Third_Party/RealThread_RTOS_RT-Thread/src/ipc.c ****     /* suspend thread */
  83:Middlewares/Third_Party/RealThread_RTOS_RT-Thread/src/ipc.c ****     rt_thread_suspend(thread);
  84:Middlewares/Third_Party/RealThread_RTOS_RT-Thread/src/ipc.c **** 
  85:Middlewares/Third_Party/RealThread_RTOS_RT-Thread/src/ipc.c ****     switch (flag)
  86:Middlewares/Third_Party/RealThread_RTOS_RT-Thread/src/ipc.c ****     {
  87:Middlewares/Third_Party/RealThread_RTOS_RT-Thread/src/ipc.c ****     case RT_IPC_FLAG_FIFO:
  88:Middlewares/Third_Party/RealThread_RTOS_RT-Thread/src/ipc.c ****         rt_list_insert_before(list, &(thread->tlist));
ARM GAS  C:\Users\GKQ\AppData\Local\Temp\ccAKSbHb.s 			page 3


  89:Middlewares/Third_Party/RealThread_RTOS_RT-Thread/src/ipc.c ****         break;
  90:Middlewares/Third_Party/RealThread_RTOS_RT-Thread/src/ipc.c **** 
  91:Middlewares/Third_Party/RealThread_RTOS_RT-Thread/src/ipc.c ****     case RT_IPC_FLAG_PRIO:
  92:Middlewares/Third_Party/RealThread_RTOS_RT-Thread/src/ipc.c ****         {
  93:Middlewares/Third_Party/RealThread_RTOS_RT-Thread/src/ipc.c ****             struct rt_list_node *n;
  94:Middlewares/Third_Party/RealThread_RTOS_RT-Thread/src/ipc.c ****             struct rt_thread *sthread;
  95:Middlewares/Third_Party/RealThread_RTOS_RT-Thread/src/ipc.c **** 
  96:Middlewares/Third_Party/RealThread_RTOS_RT-Thread/src/ipc.c ****             /* find a suitable position */
  97:Middlewares/Third_Party/RealThread_RTOS_RT-Thread/src/ipc.c ****             for (n = list->next; n != list; n = n->next)
  98:Middlewares/Third_Party/RealThread_RTOS_RT-Thread/src/ipc.c ****             {
  99:Middlewares/Third_Party/RealThread_RTOS_RT-Thread/src/ipc.c ****                 sthread = rt_list_entry(n, struct rt_thread, tlist);
 100:Middlewares/Third_Party/RealThread_RTOS_RT-Thread/src/ipc.c **** 
 101:Middlewares/Third_Party/RealThread_RTOS_RT-Thread/src/ipc.c ****                 /* find out */
 102:Middlewares/Third_Party/RealThread_RTOS_RT-Thread/src/ipc.c ****                 if (thread->current_priority < sthread->current_priority)
 103:Middlewares/Third_Party/RealThread_RTOS_RT-Thread/src/ipc.c ****                 {
 104:Middlewares/Third_Party/RealThread_RTOS_RT-Thread/src/ipc.c ****                     /* insert this thread before the sthread */
 105:Middlewares/Third_Party/RealThread_RTOS_RT-Thread/src/ipc.c ****                     rt_list_insert_before(&(sthread->tlist), &(thread->tlist));
 106:Middlewares/Third_Party/RealThread_RTOS_RT-Thread/src/ipc.c ****                     break;
 107:Middlewares/Third_Party/RealThread_RTOS_RT-Thread/src/ipc.c ****                 }
 108:Middlewares/Third_Party/RealThread_RTOS_RT-Thread/src/ipc.c ****             }
 109:Middlewares/Third_Party/RealThread_RTOS_RT-Thread/src/ipc.c **** 
 110:Middlewares/Third_Party/RealThread_RTOS_RT-Thread/src/ipc.c ****             /*
 111:Middlewares/Third_Party/RealThread_RTOS_RT-Thread/src/ipc.c ****              * not found a suitable position,
 112:Middlewares/Third_Party/RealThread_RTOS_RT-Thread/src/ipc.c ****              * append to the end of suspend_thread list
 113:Middlewares/Third_Party/RealThread_RTOS_RT-Thread/src/ipc.c ****              */
 114:Middlewares/Third_Party/RealThread_RTOS_RT-Thread/src/ipc.c ****             if (n == list)
 115:Middlewares/Third_Party/RealThread_RTOS_RT-Thread/src/ipc.c ****                 rt_list_insert_before(list, &(thread->tlist));
 116:Middlewares/Third_Party/RealThread_RTOS_RT-Thread/src/ipc.c ****         }
 117:Middlewares/Third_Party/RealThread_RTOS_RT-Thread/src/ipc.c ****         break;
 118:Middlewares/Third_Party/RealThread_RTOS_RT-Thread/src/ipc.c ****     }
 119:Middlewares/Third_Party/RealThread_RTOS_RT-Thread/src/ipc.c **** 
 120:Middlewares/Third_Party/RealThread_RTOS_RT-Thread/src/ipc.c ****     return RT_EOK;
 121:Middlewares/Third_Party/RealThread_RTOS_RT-Thread/src/ipc.c **** }
 122:Middlewares/Third_Party/RealThread_RTOS_RT-Thread/src/ipc.c **** 
 123:Middlewares/Third_Party/RealThread_RTOS_RT-Thread/src/ipc.c **** /**
 124:Middlewares/Third_Party/RealThread_RTOS_RT-Thread/src/ipc.c ****  * This function will resume the first thread in the list of a IPC object:
 125:Middlewares/Third_Party/RealThread_RTOS_RT-Thread/src/ipc.c ****  * - remove the thread from suspend queue of IPC object
 126:Middlewares/Third_Party/RealThread_RTOS_RT-Thread/src/ipc.c ****  * - put the thread into system ready queue
 127:Middlewares/Third_Party/RealThread_RTOS_RT-Thread/src/ipc.c ****  *
 128:Middlewares/Third_Party/RealThread_RTOS_RT-Thread/src/ipc.c ****  * @param list the thread list
 129:Middlewares/Third_Party/RealThread_RTOS_RT-Thread/src/ipc.c ****  *
 130:Middlewares/Third_Party/RealThread_RTOS_RT-Thread/src/ipc.c ****  * @return the operation status, RT_EOK on successful
 131:Middlewares/Third_Party/RealThread_RTOS_RT-Thread/src/ipc.c ****  */
 132:Middlewares/Third_Party/RealThread_RTOS_RT-Thread/src/ipc.c **** rt_inline rt_err_t rt_ipc_list_resume(rt_list_t *list)
 133:Middlewares/Third_Party/RealThread_RTOS_RT-Thread/src/ipc.c **** {
 134:Middlewares/Third_Party/RealThread_RTOS_RT-Thread/src/ipc.c ****     struct rt_thread *thread;
 135:Middlewares/Third_Party/RealThread_RTOS_RT-Thread/src/ipc.c **** 
 136:Middlewares/Third_Party/RealThread_RTOS_RT-Thread/src/ipc.c ****     /* get thread entry */
 137:Middlewares/Third_Party/RealThread_RTOS_RT-Thread/src/ipc.c ****     thread = rt_list_entry(list->next, struct rt_thread, tlist);
 138:Middlewares/Third_Party/RealThread_RTOS_RT-Thread/src/ipc.c **** 
 139:Middlewares/Third_Party/RealThread_RTOS_RT-Thread/src/ipc.c ****     RT_DEBUG_LOG(RT_DEBUG_IPC, ("resume thread:%s\n", thread->name));
 140:Middlewares/Third_Party/RealThread_RTOS_RT-Thread/src/ipc.c **** 
 141:Middlewares/Third_Party/RealThread_RTOS_RT-Thread/src/ipc.c ****     /* resume it */
 142:Middlewares/Third_Party/RealThread_RTOS_RT-Thread/src/ipc.c ****     rt_thread_resume(thread);
 143:Middlewares/Third_Party/RealThread_RTOS_RT-Thread/src/ipc.c **** 
 144:Middlewares/Third_Party/RealThread_RTOS_RT-Thread/src/ipc.c ****     return RT_EOK;
 145:Middlewares/Third_Party/RealThread_RTOS_RT-Thread/src/ipc.c **** }
ARM GAS  C:\Users\GKQ\AppData\Local\Temp\ccAKSbHb.s 			page 4


 146:Middlewares/Third_Party/RealThread_RTOS_RT-Thread/src/ipc.c **** 
 147:Middlewares/Third_Party/RealThread_RTOS_RT-Thread/src/ipc.c **** /**
 148:Middlewares/Third_Party/RealThread_RTOS_RT-Thread/src/ipc.c ****  * This function will resume all suspended threads in a list, including
 149:Middlewares/Third_Party/RealThread_RTOS_RT-Thread/src/ipc.c ****  * suspend list of IPC object and private list of mailbox etc.
 150:Middlewares/Third_Party/RealThread_RTOS_RT-Thread/src/ipc.c ****  *
 151:Middlewares/Third_Party/RealThread_RTOS_RT-Thread/src/ipc.c ****  * @param list of the threads to resume
 152:Middlewares/Third_Party/RealThread_RTOS_RT-Thread/src/ipc.c ****  *
 153:Middlewares/Third_Party/RealThread_RTOS_RT-Thread/src/ipc.c ****  * @return the operation status, RT_EOK on successful
 154:Middlewares/Third_Party/RealThread_RTOS_RT-Thread/src/ipc.c ****  */
 155:Middlewares/Third_Party/RealThread_RTOS_RT-Thread/src/ipc.c **** rt_inline rt_err_t rt_ipc_list_resume_all(rt_list_t *list)
 156:Middlewares/Third_Party/RealThread_RTOS_RT-Thread/src/ipc.c **** {
 157:Middlewares/Third_Party/RealThread_RTOS_RT-Thread/src/ipc.c ****     struct rt_thread *thread;
 158:Middlewares/Third_Party/RealThread_RTOS_RT-Thread/src/ipc.c ****     register rt_ubase_t temp;
 159:Middlewares/Third_Party/RealThread_RTOS_RT-Thread/src/ipc.c **** 
 160:Middlewares/Third_Party/RealThread_RTOS_RT-Thread/src/ipc.c ****     /* wakeup all suspend threads */
 161:Middlewares/Third_Party/RealThread_RTOS_RT-Thread/src/ipc.c ****     while (!rt_list_isempty(list))
 162:Middlewares/Third_Party/RealThread_RTOS_RT-Thread/src/ipc.c ****     {
 163:Middlewares/Third_Party/RealThread_RTOS_RT-Thread/src/ipc.c ****         /* disable interrupt */
 164:Middlewares/Third_Party/RealThread_RTOS_RT-Thread/src/ipc.c ****         temp = rt_hw_interrupt_disable();
 165:Middlewares/Third_Party/RealThread_RTOS_RT-Thread/src/ipc.c **** 
 166:Middlewares/Third_Party/RealThread_RTOS_RT-Thread/src/ipc.c ****         /* get next suspend thread */
 167:Middlewares/Third_Party/RealThread_RTOS_RT-Thread/src/ipc.c ****         thread = rt_list_entry(list->next, struct rt_thread, tlist);
 168:Middlewares/Third_Party/RealThread_RTOS_RT-Thread/src/ipc.c ****         /* set error code to RT_ERROR */
 169:Middlewares/Third_Party/RealThread_RTOS_RT-Thread/src/ipc.c ****         thread->error = -RT_ERROR;
 170:Middlewares/Third_Party/RealThread_RTOS_RT-Thread/src/ipc.c **** 
 171:Middlewares/Third_Party/RealThread_RTOS_RT-Thread/src/ipc.c ****         /*
 172:Middlewares/Third_Party/RealThread_RTOS_RT-Thread/src/ipc.c ****          * resume thread
 173:Middlewares/Third_Party/RealThread_RTOS_RT-Thread/src/ipc.c ****          * In rt_thread_resume function, it will remove current thread from
 174:Middlewares/Third_Party/RealThread_RTOS_RT-Thread/src/ipc.c ****          * suspend list
 175:Middlewares/Third_Party/RealThread_RTOS_RT-Thread/src/ipc.c ****          */
 176:Middlewares/Third_Party/RealThread_RTOS_RT-Thread/src/ipc.c ****         rt_thread_resume(thread);
 177:Middlewares/Third_Party/RealThread_RTOS_RT-Thread/src/ipc.c **** 
 178:Middlewares/Third_Party/RealThread_RTOS_RT-Thread/src/ipc.c ****         /* enable interrupt */
 179:Middlewares/Third_Party/RealThread_RTOS_RT-Thread/src/ipc.c ****         rt_hw_interrupt_enable(temp);
 180:Middlewares/Third_Party/RealThread_RTOS_RT-Thread/src/ipc.c ****     }
 181:Middlewares/Third_Party/RealThread_RTOS_RT-Thread/src/ipc.c **** 
 182:Middlewares/Third_Party/RealThread_RTOS_RT-Thread/src/ipc.c ****     return RT_EOK;
 183:Middlewares/Third_Party/RealThread_RTOS_RT-Thread/src/ipc.c **** }
 184:Middlewares/Third_Party/RealThread_RTOS_RT-Thread/src/ipc.c **** 
 185:Middlewares/Third_Party/RealThread_RTOS_RT-Thread/src/ipc.c **** #ifdef RT_USING_SEMAPHORE
 186:Middlewares/Third_Party/RealThread_RTOS_RT-Thread/src/ipc.c **** /**
 187:Middlewares/Third_Party/RealThread_RTOS_RT-Thread/src/ipc.c ****  * This function will initialize a semaphore and put it under control of
 188:Middlewares/Third_Party/RealThread_RTOS_RT-Thread/src/ipc.c ****  * resource management.
 189:Middlewares/Third_Party/RealThread_RTOS_RT-Thread/src/ipc.c ****  *
 190:Middlewares/Third_Party/RealThread_RTOS_RT-Thread/src/ipc.c ****  * @param sem the semaphore object
 191:Middlewares/Third_Party/RealThread_RTOS_RT-Thread/src/ipc.c ****  * @param name the name of semaphore
 192:Middlewares/Third_Party/RealThread_RTOS_RT-Thread/src/ipc.c ****  * @param value the init value of semaphore
 193:Middlewares/Third_Party/RealThread_RTOS_RT-Thread/src/ipc.c ****  * @param flag the flag of semaphore
 194:Middlewares/Third_Party/RealThread_RTOS_RT-Thread/src/ipc.c ****  *
 195:Middlewares/Third_Party/RealThread_RTOS_RT-Thread/src/ipc.c ****  * @return the operation status, RT_EOK on successful
 196:Middlewares/Third_Party/RealThread_RTOS_RT-Thread/src/ipc.c ****  */
 197:Middlewares/Third_Party/RealThread_RTOS_RT-Thread/src/ipc.c **** rt_err_t rt_sem_init(rt_sem_t    sem,
 198:Middlewares/Third_Party/RealThread_RTOS_RT-Thread/src/ipc.c ****                      const char *name,
 199:Middlewares/Third_Party/RealThread_RTOS_RT-Thread/src/ipc.c ****                      rt_uint32_t value,
 200:Middlewares/Third_Party/RealThread_RTOS_RT-Thread/src/ipc.c ****                      rt_uint8_t  flag)
 201:Middlewares/Third_Party/RealThread_RTOS_RT-Thread/src/ipc.c **** {
  28              		.loc 1 201 1 view -0
ARM GAS  C:\Users\GKQ\AppData\Local\Temp\ccAKSbHb.s 			page 5


  29              		.cfi_startproc
  30              		@ args = 0, pretend = 0, frame = 0
  31              		@ frame_needed = 0, uses_anonymous_args = 0
  32              		.loc 1 201 1 is_stmt 0 view .LVU1
  33 0000 70B5     		push	{r4, r5, r6, lr}
  34              	.LCFI0:
  35              		.cfi_def_cfa_offset 16
  36              		.cfi_offset 4, -16
  37              		.cfi_offset 5, -12
  38              		.cfi_offset 6, -8
  39              		.cfi_offset 14, -4
  40 0002 0446     		mov	r4, r0
  41 0004 1646     		mov	r6, r2
  42 0006 1D46     		mov	r5, r3
 202:Middlewares/Third_Party/RealThread_RTOS_RT-Thread/src/ipc.c ****     RT_ASSERT(sem != RT_NULL);
  43              		.loc 1 202 30 is_stmt 1 view .LVU2
 203:Middlewares/Third_Party/RealThread_RTOS_RT-Thread/src/ipc.c ****     RT_ASSERT(value < 0x10000U);
  44              		.loc 1 203 32 view .LVU3
 204:Middlewares/Third_Party/RealThread_RTOS_RT-Thread/src/ipc.c **** 
 205:Middlewares/Third_Party/RealThread_RTOS_RT-Thread/src/ipc.c ****     /* init object */
 206:Middlewares/Third_Party/RealThread_RTOS_RT-Thread/src/ipc.c ****     rt_object_init(&(sem->parent.parent), RT_Object_Class_Semaphore, name);
  45              		.loc 1 206 5 view .LVU4
  46 0008 0A46     		mov	r2, r1
  47              	.LVL1:
  48              		.loc 1 206 5 is_stmt 0 view .LVU5
  49 000a 0221     		movs	r1, #2
  50              	.LVL2:
  51              		.loc 1 206 5 view .LVU6
  52 000c FFF7FEFF 		bl	rt_object_init
  53              	.LVL3:
 207:Middlewares/Third_Party/RealThread_RTOS_RT-Thread/src/ipc.c **** 
 208:Middlewares/Third_Party/RealThread_RTOS_RT-Thread/src/ipc.c ****     /* init ipc object */
 209:Middlewares/Third_Party/RealThread_RTOS_RT-Thread/src/ipc.c ****     rt_ipc_object_init(&(sem->parent));
  54              		.loc 1 209 5 is_stmt 1 view .LVU7
  55              	.LBB25:
  56              	.LBI25:
  59:Middlewares/Third_Party/RealThread_RTOS_RT-Thread/src/ipc.c **** {
  57              		.loc 1 59 20 view .LVU8
  58              	.LBB26:
  62:Middlewares/Third_Party/RealThread_RTOS_RT-Thread/src/ipc.c **** 
  59              		.loc 1 62 5 view .LVU9
  60 0010 04F11403 		add	r3, r4, #20
  61              	.LVL4:
  62              	.LBB27:
  63              	.LBI27:
  64              		.file 2 "Middlewares/Third_Party/RealThread_RTOS_RT-Thread/include/rtservice.h"
   1:Middlewares/Third_Party/RealThread_RTOS_RT-Thread/include/rtservice.h **** /*
   2:Middlewares/Third_Party/RealThread_RTOS_RT-Thread/include/rtservice.h ****  * Copyright (c) 2006-2018, RT-Thread Development Team
   3:Middlewares/Third_Party/RealThread_RTOS_RT-Thread/include/rtservice.h ****  *
   4:Middlewares/Third_Party/RealThread_RTOS_RT-Thread/include/rtservice.h ****  * SPDX-License-Identifier: Apache-2.0
   5:Middlewares/Third_Party/RealThread_RTOS_RT-Thread/include/rtservice.h ****  *
   6:Middlewares/Third_Party/RealThread_RTOS_RT-Thread/include/rtservice.h ****  * Change Logs:
   7:Middlewares/Third_Party/RealThread_RTOS_RT-Thread/include/rtservice.h ****  * Date           Author       Notes
   8:Middlewares/Third_Party/RealThread_RTOS_RT-Thread/include/rtservice.h ****  * 2006-03-16     Bernard      the first version
   9:Middlewares/Third_Party/RealThread_RTOS_RT-Thread/include/rtservice.h ****  * 2006-09-07     Bernard      move the kservice APIs to rtthread.h
  10:Middlewares/Third_Party/RealThread_RTOS_RT-Thread/include/rtservice.h ****  * 2007-06-27     Bernard      fix the rt_list_remove bug
  11:Middlewares/Third_Party/RealThread_RTOS_RT-Thread/include/rtservice.h ****  * 2012-03-22     Bernard      rename kservice.h to rtservice.h
ARM GAS  C:\Users\GKQ\AppData\Local\Temp\ccAKSbHb.s 			page 6


  12:Middlewares/Third_Party/RealThread_RTOS_RT-Thread/include/rtservice.h ****  * 2017-11-15     JasonJia     Modify rt_slist_foreach to rt_slist_for_each_entry.
  13:Middlewares/Third_Party/RealThread_RTOS_RT-Thread/include/rtservice.h ****  *                             Make code cleanup.
  14:Middlewares/Third_Party/RealThread_RTOS_RT-Thread/include/rtservice.h ****  */
  15:Middlewares/Third_Party/RealThread_RTOS_RT-Thread/include/rtservice.h **** 
  16:Middlewares/Third_Party/RealThread_RTOS_RT-Thread/include/rtservice.h **** #ifndef __RT_SERVICE_H__
  17:Middlewares/Third_Party/RealThread_RTOS_RT-Thread/include/rtservice.h **** #define __RT_SERVICE_H__
  18:Middlewares/Third_Party/RealThread_RTOS_RT-Thread/include/rtservice.h **** 
  19:Middlewares/Third_Party/RealThread_RTOS_RT-Thread/include/rtservice.h **** #ifdef __cplusplus
  20:Middlewares/Third_Party/RealThread_RTOS_RT-Thread/include/rtservice.h **** extern "C" {
  21:Middlewares/Third_Party/RealThread_RTOS_RT-Thread/include/rtservice.h **** #endif
  22:Middlewares/Third_Party/RealThread_RTOS_RT-Thread/include/rtservice.h **** 
  23:Middlewares/Third_Party/RealThread_RTOS_RT-Thread/include/rtservice.h **** /**
  24:Middlewares/Third_Party/RealThread_RTOS_RT-Thread/include/rtservice.h ****  * @addtogroup KernelService
  25:Middlewares/Third_Party/RealThread_RTOS_RT-Thread/include/rtservice.h ****  */
  26:Middlewares/Third_Party/RealThread_RTOS_RT-Thread/include/rtservice.h **** 
  27:Middlewares/Third_Party/RealThread_RTOS_RT-Thread/include/rtservice.h **** /**@{*/
  28:Middlewares/Third_Party/RealThread_RTOS_RT-Thread/include/rtservice.h **** 
  29:Middlewares/Third_Party/RealThread_RTOS_RT-Thread/include/rtservice.h **** /**
  30:Middlewares/Third_Party/RealThread_RTOS_RT-Thread/include/rtservice.h ****  * rt_container_of - return the member address of ptr, if the type of ptr is the
  31:Middlewares/Third_Party/RealThread_RTOS_RT-Thread/include/rtservice.h ****  * struct type.
  32:Middlewares/Third_Party/RealThread_RTOS_RT-Thread/include/rtservice.h ****  */
  33:Middlewares/Third_Party/RealThread_RTOS_RT-Thread/include/rtservice.h **** #define rt_container_of(ptr, type, member) \
  34:Middlewares/Third_Party/RealThread_RTOS_RT-Thread/include/rtservice.h ****     ((type *)((char *)(ptr) - (unsigned long)(&((type *)0)->member)))
  35:Middlewares/Third_Party/RealThread_RTOS_RT-Thread/include/rtservice.h **** 
  36:Middlewares/Third_Party/RealThread_RTOS_RT-Thread/include/rtservice.h **** 
  37:Middlewares/Third_Party/RealThread_RTOS_RT-Thread/include/rtservice.h **** /**
  38:Middlewares/Third_Party/RealThread_RTOS_RT-Thread/include/rtservice.h ****  * @brief initialize a list object
  39:Middlewares/Third_Party/RealThread_RTOS_RT-Thread/include/rtservice.h ****  */
  40:Middlewares/Third_Party/RealThread_RTOS_RT-Thread/include/rtservice.h **** #define RT_LIST_OBJECT_INIT(object) { &(object), &(object) }
  41:Middlewares/Third_Party/RealThread_RTOS_RT-Thread/include/rtservice.h **** 
  42:Middlewares/Third_Party/RealThread_RTOS_RT-Thread/include/rtservice.h **** /**
  43:Middlewares/Third_Party/RealThread_RTOS_RT-Thread/include/rtservice.h ****  * @brief initialize a list
  44:Middlewares/Third_Party/RealThread_RTOS_RT-Thread/include/rtservice.h ****  *
  45:Middlewares/Third_Party/RealThread_RTOS_RT-Thread/include/rtservice.h ****  * @param l list to be initialized
  46:Middlewares/Third_Party/RealThread_RTOS_RT-Thread/include/rtservice.h ****  */
  47:Middlewares/Third_Party/RealThread_RTOS_RT-Thread/include/rtservice.h **** rt_inline void rt_list_init(rt_list_t *l)
  65              		.loc 2 47 16 view .LVU10
  66              	.LBB28:
  48:Middlewares/Third_Party/RealThread_RTOS_RT-Thread/include/rtservice.h **** {
  49:Middlewares/Third_Party/RealThread_RTOS_RT-Thread/include/rtservice.h ****     l->next = l->prev = l;
  67              		.loc 2 49 5 view .LVU11
  68              		.loc 2 49 23 is_stmt 0 view .LVU12
  69 0014 A361     		str	r3, [r4, #24]
  70              		.loc 2 49 13 view .LVU13
  71 0016 6361     		str	r3, [r4, #20]
  72              	.LVL5:
  73              		.loc 2 49 13 view .LVU14
  74              	.LBE28:
  75              	.LBE27:
  64:Middlewares/Third_Party/RealThread_RTOS_RT-Thread/src/ipc.c **** }
  76              		.loc 1 64 5 is_stmt 1 view .LVU15
  64:Middlewares/Third_Party/RealThread_RTOS_RT-Thread/src/ipc.c **** }
  77              		.loc 1 64 5 is_stmt 0 view .LVU16
  78              	.LBE26:
  79              	.LBE25:
 210:Middlewares/Third_Party/RealThread_RTOS_RT-Thread/src/ipc.c **** 
 211:Middlewares/Third_Party/RealThread_RTOS_RT-Thread/src/ipc.c ****     /* set init value */
ARM GAS  C:\Users\GKQ\AppData\Local\Temp\ccAKSbHb.s 			page 7


 212:Middlewares/Third_Party/RealThread_RTOS_RT-Thread/src/ipc.c ****     sem->value = (rt_uint16_t)value;
  80              		.loc 1 212 5 is_stmt 1 view .LVU17
  81              		.loc 1 212 16 is_stmt 0 view .LVU18
  82 0018 A683     		strh	r6, [r4, #28]	@ movhi
 213:Middlewares/Third_Party/RealThread_RTOS_RT-Thread/src/ipc.c **** 
 214:Middlewares/Third_Party/RealThread_RTOS_RT-Thread/src/ipc.c ****     /* set parent */
 215:Middlewares/Third_Party/RealThread_RTOS_RT-Thread/src/ipc.c ****     sem->parent.parent.flag = flag;
  83              		.loc 1 215 5 is_stmt 1 view .LVU19
  84              		.loc 1 215 29 is_stmt 0 view .LVU20
  85 001a 6572     		strb	r5, [r4, #9]
 216:Middlewares/Third_Party/RealThread_RTOS_RT-Thread/src/ipc.c **** 
 217:Middlewares/Third_Party/RealThread_RTOS_RT-Thread/src/ipc.c ****     return RT_EOK;
  86              		.loc 1 217 5 is_stmt 1 view .LVU21
 218:Middlewares/Third_Party/RealThread_RTOS_RT-Thread/src/ipc.c **** }
  87              		.loc 1 218 1 is_stmt 0 view .LVU22
  88 001c 0020     		movs	r0, #0
  89 001e 70BD     		pop	{r4, r5, r6, pc}
  90              		.loc 1 218 1 view .LVU23
  91              		.cfi_endproc
  92              	.LFE19:
  94              		.section	.text.rt_sem_detach,"ax",%progbits
  95              		.align	1
  96              		.global	rt_sem_detach
  97              		.syntax unified
  98              		.thumb
  99              		.thumb_func
 100              		.fpu softvfp
 102              	rt_sem_detach:
 103              	.LVL6:
 104              	.LFB20:
 219:Middlewares/Third_Party/RealThread_RTOS_RT-Thread/src/ipc.c **** RTM_EXPORT(rt_sem_init);
 220:Middlewares/Third_Party/RealThread_RTOS_RT-Thread/src/ipc.c **** 
 221:Middlewares/Third_Party/RealThread_RTOS_RT-Thread/src/ipc.c **** /**
 222:Middlewares/Third_Party/RealThread_RTOS_RT-Thread/src/ipc.c ****  * This function will detach a semaphore from resource management
 223:Middlewares/Third_Party/RealThread_RTOS_RT-Thread/src/ipc.c ****  *
 224:Middlewares/Third_Party/RealThread_RTOS_RT-Thread/src/ipc.c ****  * @param sem the semaphore object
 225:Middlewares/Third_Party/RealThread_RTOS_RT-Thread/src/ipc.c ****  *
 226:Middlewares/Third_Party/RealThread_RTOS_RT-Thread/src/ipc.c ****  * @return the operation status, RT_EOK on successful
 227:Middlewares/Third_Party/RealThread_RTOS_RT-Thread/src/ipc.c ****  *
 228:Middlewares/Third_Party/RealThread_RTOS_RT-Thread/src/ipc.c ****  * @see rt_sem_delete
 229:Middlewares/Third_Party/RealThread_RTOS_RT-Thread/src/ipc.c ****  */
 230:Middlewares/Third_Party/RealThread_RTOS_RT-Thread/src/ipc.c **** rt_err_t rt_sem_detach(rt_sem_t sem)
 231:Middlewares/Third_Party/RealThread_RTOS_RT-Thread/src/ipc.c **** {
 105              		.loc 1 231 1 is_stmt 1 view -0
 106              		.cfi_startproc
 107              		@ args = 0, pretend = 0, frame = 0
 108              		@ frame_needed = 0, uses_anonymous_args = 0
 109              		.loc 1 231 1 is_stmt 0 view .LVU25
 110 0000 70B5     		push	{r4, r5, r6, lr}
 111              	.LCFI1:
 112              		.cfi_def_cfa_offset 16
 113              		.cfi_offset 4, -16
 114              		.cfi_offset 5, -12
 115              		.cfi_offset 6, -8
 116              		.cfi_offset 14, -4
 117 0002 0446     		mov	r4, r0
 232:Middlewares/Third_Party/RealThread_RTOS_RT-Thread/src/ipc.c ****     /* parameter check */
ARM GAS  C:\Users\GKQ\AppData\Local\Temp\ccAKSbHb.s 			page 8


 233:Middlewares/Third_Party/RealThread_RTOS_RT-Thread/src/ipc.c ****     RT_ASSERT(sem != RT_NULL);
 118              		.loc 1 233 30 is_stmt 1 view .LVU26
 234:Middlewares/Third_Party/RealThread_RTOS_RT-Thread/src/ipc.c ****     RT_ASSERT(rt_object_get_type(&sem->parent.parent) == RT_Object_Class_Semaphore);
 119              		.loc 1 234 84 view .LVU27
 235:Middlewares/Third_Party/RealThread_RTOS_RT-Thread/src/ipc.c ****     RT_ASSERT(rt_object_is_systemobject(&sem->parent.parent));
 120              		.loc 1 235 62 view .LVU28
 236:Middlewares/Third_Party/RealThread_RTOS_RT-Thread/src/ipc.c **** 
 237:Middlewares/Third_Party/RealThread_RTOS_RT-Thread/src/ipc.c ****     /* wakeup all suspend threads */
 238:Middlewares/Third_Party/RealThread_RTOS_RT-Thread/src/ipc.c ****     rt_ipc_list_resume_all(&(sem->parent.suspend_thread));
 121              		.loc 1 238 5 view .LVU29
 122 0004 00F11405 		add	r5, r0, #20
 123              	.LVL7:
 124              	.LBB33:
 125              	.LBI33:
 155:Middlewares/Third_Party/RealThread_RTOS_RT-Thread/src/ipc.c **** {
 126              		.loc 1 155 20 view .LVU30
 127              	.LBB34:
 157:Middlewares/Third_Party/RealThread_RTOS_RT-Thread/src/ipc.c ****     register rt_ubase_t temp;
 128              		.loc 1 157 5 view .LVU31
 158:Middlewares/Third_Party/RealThread_RTOS_RT-Thread/src/ipc.c **** 
 129              		.loc 1 158 5 view .LVU32
 161:Middlewares/Third_Party/RealThread_RTOS_RT-Thread/src/ipc.c ****     {
 130              		.loc 1 161 5 view .LVU33
 131              	.L4:
 161:Middlewares/Third_Party/RealThread_RTOS_RT-Thread/src/ipc.c ****     {
 132              		.loc 1 161 11 view .LVU34
 133              	.LBB35:
 134              	.LBI35:
  50:Middlewares/Third_Party/RealThread_RTOS_RT-Thread/include/rtservice.h **** }
  51:Middlewares/Third_Party/RealThread_RTOS_RT-Thread/include/rtservice.h **** 
  52:Middlewares/Third_Party/RealThread_RTOS_RT-Thread/include/rtservice.h **** /**
  53:Middlewares/Third_Party/RealThread_RTOS_RT-Thread/include/rtservice.h ****  * @brief insert a node after a list
  54:Middlewares/Third_Party/RealThread_RTOS_RT-Thread/include/rtservice.h ****  *
  55:Middlewares/Third_Party/RealThread_RTOS_RT-Thread/include/rtservice.h ****  * @param l list to insert it
  56:Middlewares/Third_Party/RealThread_RTOS_RT-Thread/include/rtservice.h ****  * @param n new node to be inserted
  57:Middlewares/Third_Party/RealThread_RTOS_RT-Thread/include/rtservice.h ****  */
  58:Middlewares/Third_Party/RealThread_RTOS_RT-Thread/include/rtservice.h **** rt_inline void rt_list_insert_after(rt_list_t *l, rt_list_t *n)
  59:Middlewares/Third_Party/RealThread_RTOS_RT-Thread/include/rtservice.h **** {
  60:Middlewares/Third_Party/RealThread_RTOS_RT-Thread/include/rtservice.h ****     l->next->prev = n;
  61:Middlewares/Third_Party/RealThread_RTOS_RT-Thread/include/rtservice.h ****     n->next = l->next;
  62:Middlewares/Third_Party/RealThread_RTOS_RT-Thread/include/rtservice.h **** 
  63:Middlewares/Third_Party/RealThread_RTOS_RT-Thread/include/rtservice.h ****     l->next = n;
  64:Middlewares/Third_Party/RealThread_RTOS_RT-Thread/include/rtservice.h ****     n->prev = l;
  65:Middlewares/Third_Party/RealThread_RTOS_RT-Thread/include/rtservice.h **** }
  66:Middlewares/Third_Party/RealThread_RTOS_RT-Thread/include/rtservice.h **** 
  67:Middlewares/Third_Party/RealThread_RTOS_RT-Thread/include/rtservice.h **** /**
  68:Middlewares/Third_Party/RealThread_RTOS_RT-Thread/include/rtservice.h ****  * @brief insert a node before a list
  69:Middlewares/Third_Party/RealThread_RTOS_RT-Thread/include/rtservice.h ****  *
  70:Middlewares/Third_Party/RealThread_RTOS_RT-Thread/include/rtservice.h ****  * @param n new node to be inserted
  71:Middlewares/Third_Party/RealThread_RTOS_RT-Thread/include/rtservice.h ****  * @param l list to insert it
  72:Middlewares/Third_Party/RealThread_RTOS_RT-Thread/include/rtservice.h ****  */
  73:Middlewares/Third_Party/RealThread_RTOS_RT-Thread/include/rtservice.h **** rt_inline void rt_list_insert_before(rt_list_t *l, rt_list_t *n)
  74:Middlewares/Third_Party/RealThread_RTOS_RT-Thread/include/rtservice.h **** {
  75:Middlewares/Third_Party/RealThread_RTOS_RT-Thread/include/rtservice.h ****     l->prev->next = n;
  76:Middlewares/Third_Party/RealThread_RTOS_RT-Thread/include/rtservice.h ****     n->prev = l->prev;
  77:Middlewares/Third_Party/RealThread_RTOS_RT-Thread/include/rtservice.h **** 
  78:Middlewares/Third_Party/RealThread_RTOS_RT-Thread/include/rtservice.h ****     l->prev = n;
ARM GAS  C:\Users\GKQ\AppData\Local\Temp\ccAKSbHb.s 			page 9


  79:Middlewares/Third_Party/RealThread_RTOS_RT-Thread/include/rtservice.h ****     n->next = l;
  80:Middlewares/Third_Party/RealThread_RTOS_RT-Thread/include/rtservice.h **** }
  81:Middlewares/Third_Party/RealThread_RTOS_RT-Thread/include/rtservice.h **** 
  82:Middlewares/Third_Party/RealThread_RTOS_RT-Thread/include/rtservice.h **** /**
  83:Middlewares/Third_Party/RealThread_RTOS_RT-Thread/include/rtservice.h ****  * @brief remove node from list.
  84:Middlewares/Third_Party/RealThread_RTOS_RT-Thread/include/rtservice.h ****  * @param n the node to remove from the list.
  85:Middlewares/Third_Party/RealThread_RTOS_RT-Thread/include/rtservice.h ****  */
  86:Middlewares/Third_Party/RealThread_RTOS_RT-Thread/include/rtservice.h **** rt_inline void rt_list_remove(rt_list_t *n)
  87:Middlewares/Third_Party/RealThread_RTOS_RT-Thread/include/rtservice.h **** {
  88:Middlewares/Third_Party/RealThread_RTOS_RT-Thread/include/rtservice.h ****     n->next->prev = n->prev;
  89:Middlewares/Third_Party/RealThread_RTOS_RT-Thread/include/rtservice.h ****     n->prev->next = n->next;
  90:Middlewares/Third_Party/RealThread_RTOS_RT-Thread/include/rtservice.h **** 
  91:Middlewares/Third_Party/RealThread_RTOS_RT-Thread/include/rtservice.h ****     n->next = n->prev = n;
  92:Middlewares/Third_Party/RealThread_RTOS_RT-Thread/include/rtservice.h **** }
  93:Middlewares/Third_Party/RealThread_RTOS_RT-Thread/include/rtservice.h **** 
  94:Middlewares/Third_Party/RealThread_RTOS_RT-Thread/include/rtservice.h **** /**
  95:Middlewares/Third_Party/RealThread_RTOS_RT-Thread/include/rtservice.h ****  * @brief tests whether a list is empty
  96:Middlewares/Third_Party/RealThread_RTOS_RT-Thread/include/rtservice.h ****  * @param l the list to test.
  97:Middlewares/Third_Party/RealThread_RTOS_RT-Thread/include/rtservice.h ****  */
  98:Middlewares/Third_Party/RealThread_RTOS_RT-Thread/include/rtservice.h **** rt_inline int rt_list_isempty(const rt_list_t *l)
 135              		.loc 2 98 15 view .LVU35
 136              	.LBB36:
  99:Middlewares/Third_Party/RealThread_RTOS_RT-Thread/include/rtservice.h **** {
 100:Middlewares/Third_Party/RealThread_RTOS_RT-Thread/include/rtservice.h ****     return l->next == l;
 137              		.loc 2 100 5 view .LVU36
 138              		.loc 2 100 13 is_stmt 0 view .LVU37
 139 0008 2B68     		ldr	r3, [r5]
 140              	.LVL8:
 141              		.loc 2 100 13 view .LVU38
 142              	.LBE36:
 143              	.LBE35:
 161:Middlewares/Third_Party/RealThread_RTOS_RT-Thread/src/ipc.c ****     {
 144              		.loc 1 161 11 view .LVU39
 145 000a 9D42     		cmp	r5, r3
 146 000c 0DD0     		beq	.L7
 164:Middlewares/Third_Party/RealThread_RTOS_RT-Thread/src/ipc.c **** 
 147              		.loc 1 164 9 is_stmt 1 view .LVU40
 164:Middlewares/Third_Party/RealThread_RTOS_RT-Thread/src/ipc.c **** 
 148              		.loc 1 164 16 is_stmt 0 view .LVU41
 149 000e FFF7FEFF 		bl	rt_hw_interrupt_disable
 150              	.LVL9:
 151 0012 0646     		mov	r6, r0
 152              	.LVL10:
 167:Middlewares/Third_Party/RealThread_RTOS_RT-Thread/src/ipc.c ****         /* set error code to RT_ERROR */
 153              		.loc 1 167 9 is_stmt 1 view .LVU42
 167:Middlewares/Third_Party/RealThread_RTOS_RT-Thread/src/ipc.c ****         /* set error code to RT_ERROR */
 154              		.loc 1 167 18 is_stmt 0 view .LVU43
 155 0014 2868     		ldr	r0, [r5]
 156              	.LVL11:
 169:Middlewares/Third_Party/RealThread_RTOS_RT-Thread/src/ipc.c **** 
 157              		.loc 1 169 9 is_stmt 1 view .LVU44
 169:Middlewares/Third_Party/RealThread_RTOS_RT-Thread/src/ipc.c **** 
 158              		.loc 1 169 23 is_stmt 0 view .LVU45
 159 0016 4FF0FF33 		mov	r3, #-1
 160 001a C361     		str	r3, [r0, #28]
 176:Middlewares/Third_Party/RealThread_RTOS_RT-Thread/src/ipc.c **** 
 161              		.loc 1 176 9 is_stmt 1 view .LVU46
ARM GAS  C:\Users\GKQ\AppData\Local\Temp\ccAKSbHb.s 			page 10


 162 001c 1438     		subs	r0, r0, #20
 163              	.LVL12:
 176:Middlewares/Third_Party/RealThread_RTOS_RT-Thread/src/ipc.c **** 
 164              		.loc 1 176 9 is_stmt 0 view .LVU47
 165 001e FFF7FEFF 		bl	rt_thread_resume
 166              	.LVL13:
 179:Middlewares/Third_Party/RealThread_RTOS_RT-Thread/src/ipc.c ****     }
 167              		.loc 1 179 9 is_stmt 1 view .LVU48
 168 0022 3046     		mov	r0, r6
 169 0024 FFF7FEFF 		bl	rt_hw_interrupt_enable
 170              	.LVL14:
 171 0028 EEE7     		b	.L4
 172              	.LVL15:
 173              	.L7:
 182:Middlewares/Third_Party/RealThread_RTOS_RT-Thread/src/ipc.c **** }
 174              		.loc 1 182 5 view .LVU49
 182:Middlewares/Third_Party/RealThread_RTOS_RT-Thread/src/ipc.c **** }
 175              		.loc 1 182 5 is_stmt 0 view .LVU50
 176              	.LBE34:
 177              	.LBE33:
 239:Middlewares/Third_Party/RealThread_RTOS_RT-Thread/src/ipc.c **** 
 240:Middlewares/Third_Party/RealThread_RTOS_RT-Thread/src/ipc.c ****     /* detach semaphore object */
 241:Middlewares/Third_Party/RealThread_RTOS_RT-Thread/src/ipc.c ****     rt_object_detach(&(sem->parent.parent));
 178              		.loc 1 241 5 is_stmt 1 view .LVU51
 179 002a 2046     		mov	r0, r4
 180 002c FFF7FEFF 		bl	rt_object_detach
 181              	.LVL16:
 242:Middlewares/Third_Party/RealThread_RTOS_RT-Thread/src/ipc.c **** 
 243:Middlewares/Third_Party/RealThread_RTOS_RT-Thread/src/ipc.c ****     return RT_EOK;
 182              		.loc 1 243 5 view .LVU52
 244:Middlewares/Third_Party/RealThread_RTOS_RT-Thread/src/ipc.c **** }
 183              		.loc 1 244 1 is_stmt 0 view .LVU53
 184 0030 0020     		movs	r0, #0
 185 0032 70BD     		pop	{r4, r5, r6, pc}
 186              		.loc 1 244 1 view .LVU54
 187              		.cfi_endproc
 188              	.LFE20:
 190              		.section	.text.rt_sem_create,"ax",%progbits
 191              		.align	1
 192              		.global	rt_sem_create
 193              		.syntax unified
 194              		.thumb
 195              		.thumb_func
 196              		.fpu softvfp
 198              	rt_sem_create:
 199              	.LVL17:
 200              	.LFB21:
 245:Middlewares/Third_Party/RealThread_RTOS_RT-Thread/src/ipc.c **** RTM_EXPORT(rt_sem_detach);
 246:Middlewares/Third_Party/RealThread_RTOS_RT-Thread/src/ipc.c **** 
 247:Middlewares/Third_Party/RealThread_RTOS_RT-Thread/src/ipc.c **** #ifdef RT_USING_HEAP
 248:Middlewares/Third_Party/RealThread_RTOS_RT-Thread/src/ipc.c **** /**
 249:Middlewares/Third_Party/RealThread_RTOS_RT-Thread/src/ipc.c ****  * This function will create a semaphore from system resource
 250:Middlewares/Third_Party/RealThread_RTOS_RT-Thread/src/ipc.c ****  *
 251:Middlewares/Third_Party/RealThread_RTOS_RT-Thread/src/ipc.c ****  * @param name the name of semaphore
 252:Middlewares/Third_Party/RealThread_RTOS_RT-Thread/src/ipc.c ****  * @param value the init value of semaphore
 253:Middlewares/Third_Party/RealThread_RTOS_RT-Thread/src/ipc.c ****  * @param flag the flag of semaphore
 254:Middlewares/Third_Party/RealThread_RTOS_RT-Thread/src/ipc.c ****  *
ARM GAS  C:\Users\GKQ\AppData\Local\Temp\ccAKSbHb.s 			page 11


 255:Middlewares/Third_Party/RealThread_RTOS_RT-Thread/src/ipc.c ****  * @return the created semaphore, RT_NULL on error happen
 256:Middlewares/Third_Party/RealThread_RTOS_RT-Thread/src/ipc.c ****  *
 257:Middlewares/Third_Party/RealThread_RTOS_RT-Thread/src/ipc.c ****  * @see rt_sem_init
 258:Middlewares/Third_Party/RealThread_RTOS_RT-Thread/src/ipc.c ****  */
 259:Middlewares/Third_Party/RealThread_RTOS_RT-Thread/src/ipc.c **** rt_sem_t rt_sem_create(const char *name, rt_uint32_t value, rt_uint8_t flag)
 260:Middlewares/Third_Party/RealThread_RTOS_RT-Thread/src/ipc.c **** {
 201              		.loc 1 260 1 is_stmt 1 view -0
 202              		.cfi_startproc
 203              		@ args = 0, pretend = 0, frame = 0
 204              		@ frame_needed = 0, uses_anonymous_args = 0
 205              		.loc 1 260 1 is_stmt 0 view .LVU56
 206 0000 38B5     		push	{r3, r4, r5, lr}
 207              	.LCFI2:
 208              		.cfi_def_cfa_offset 16
 209              		.cfi_offset 3, -16
 210              		.cfi_offset 4, -12
 211              		.cfi_offset 5, -8
 212              		.cfi_offset 14, -4
 213 0002 0D46     		mov	r5, r1
 214 0004 1446     		mov	r4, r2
 261:Middlewares/Third_Party/RealThread_RTOS_RT-Thread/src/ipc.c ****     rt_sem_t sem;
 215              		.loc 1 261 5 is_stmt 1 view .LVU57
 262:Middlewares/Third_Party/RealThread_RTOS_RT-Thread/src/ipc.c **** 
 263:Middlewares/Third_Party/RealThread_RTOS_RT-Thread/src/ipc.c ****     RT_DEBUG_NOT_IN_INTERRUPT;
 216              		.loc 1 263 30 view .LVU58
 264:Middlewares/Third_Party/RealThread_RTOS_RT-Thread/src/ipc.c ****     RT_ASSERT(value < 0x10000U);
 217              		.loc 1 264 32 view .LVU59
 265:Middlewares/Third_Party/RealThread_RTOS_RT-Thread/src/ipc.c **** 
 266:Middlewares/Third_Party/RealThread_RTOS_RT-Thread/src/ipc.c ****     /* allocate object */
 267:Middlewares/Third_Party/RealThread_RTOS_RT-Thread/src/ipc.c ****     sem = (rt_sem_t)rt_object_allocate(RT_Object_Class_Semaphore, name);
 218              		.loc 1 267 5 view .LVU60
 219              		.loc 1 267 21 is_stmt 0 view .LVU61
 220 0006 0146     		mov	r1, r0
 221              	.LVL18:
 222              		.loc 1 267 21 view .LVU62
 223 0008 0220     		movs	r0, #2
 224              	.LVL19:
 225              		.loc 1 267 21 view .LVU63
 226 000a FFF7FEFF 		bl	rt_object_allocate
 227              	.LVL20:
 268:Middlewares/Third_Party/RealThread_RTOS_RT-Thread/src/ipc.c ****     if (sem == RT_NULL)
 228              		.loc 1 268 5 is_stmt 1 view .LVU64
 229              		.loc 1 268 8 is_stmt 0 view .LVU65
 230 000e 0346     		mov	r3, r0
 231 0010 28B1     		cbz	r0, .L8
 269:Middlewares/Third_Party/RealThread_RTOS_RT-Thread/src/ipc.c ****         return sem;
 270:Middlewares/Third_Party/RealThread_RTOS_RT-Thread/src/ipc.c **** 
 271:Middlewares/Third_Party/RealThread_RTOS_RT-Thread/src/ipc.c ****     /* init ipc object */
 272:Middlewares/Third_Party/RealThread_RTOS_RT-Thread/src/ipc.c ****     rt_ipc_object_init(&(sem->parent));
 232              		.loc 1 272 5 is_stmt 1 view .LVU66
 233              	.LVL21:
 234              	.LBB37:
 235              	.LBI37:
  59:Middlewares/Third_Party/RealThread_RTOS_RT-Thread/src/ipc.c **** {
 236              		.loc 1 59 20 view .LVU67
 237              	.LBB38:
  62:Middlewares/Third_Party/RealThread_RTOS_RT-Thread/src/ipc.c **** 
ARM GAS  C:\Users\GKQ\AppData\Local\Temp\ccAKSbHb.s 			page 12


 238              		.loc 1 62 5 view .LVU68
 239 0012 00F11402 		add	r2, r0, #20
 240              	.LVL22:
 241              	.LBB39:
 242              	.LBI39:
  47:Middlewares/Third_Party/RealThread_RTOS_RT-Thread/include/rtservice.h **** {
 243              		.loc 2 47 16 view .LVU69
 244              	.LBB40:
  49:Middlewares/Third_Party/RealThread_RTOS_RT-Thread/include/rtservice.h **** }
 245              		.loc 2 49 5 view .LVU70
  49:Middlewares/Third_Party/RealThread_RTOS_RT-Thread/include/rtservice.h **** }
 246              		.loc 2 49 23 is_stmt 0 view .LVU71
 247 0016 8261     		str	r2, [r0, #24]
  49:Middlewares/Third_Party/RealThread_RTOS_RT-Thread/include/rtservice.h **** }
 248              		.loc 2 49 13 view .LVU72
 249 0018 4261     		str	r2, [r0, #20]
 250              	.LVL23:
  49:Middlewares/Third_Party/RealThread_RTOS_RT-Thread/include/rtservice.h **** }
 251              		.loc 2 49 13 view .LVU73
 252              	.LBE40:
 253              	.LBE39:
  64:Middlewares/Third_Party/RealThread_RTOS_RT-Thread/src/ipc.c **** }
 254              		.loc 1 64 5 is_stmt 1 view .LVU74
  64:Middlewares/Third_Party/RealThread_RTOS_RT-Thread/src/ipc.c **** }
 255              		.loc 1 64 5 is_stmt 0 view .LVU75
 256              	.LBE38:
 257              	.LBE37:
 273:Middlewares/Third_Party/RealThread_RTOS_RT-Thread/src/ipc.c **** 
 274:Middlewares/Third_Party/RealThread_RTOS_RT-Thread/src/ipc.c ****     /* set init value */
 275:Middlewares/Third_Party/RealThread_RTOS_RT-Thread/src/ipc.c ****     sem->value = value;
 258              		.loc 1 275 5 is_stmt 1 view .LVU76
 259              		.loc 1 275 16 is_stmt 0 view .LVU77
 260 001a 8583     		strh	r5, [r0, #28]	@ movhi
 276:Middlewares/Third_Party/RealThread_RTOS_RT-Thread/src/ipc.c **** 
 277:Middlewares/Third_Party/RealThread_RTOS_RT-Thread/src/ipc.c ****     /* set parent */
 278:Middlewares/Third_Party/RealThread_RTOS_RT-Thread/src/ipc.c ****     sem->parent.parent.flag = flag;
 261              		.loc 1 278 5 is_stmt 1 view .LVU78
 262              		.loc 1 278 29 is_stmt 0 view .LVU79
 263 001c 4472     		strb	r4, [r0, #9]
 279:Middlewares/Third_Party/RealThread_RTOS_RT-Thread/src/ipc.c **** 
 280:Middlewares/Third_Party/RealThread_RTOS_RT-Thread/src/ipc.c ****     return sem;
 264              		.loc 1 280 5 is_stmt 1 view .LVU80
 265              	.L8:
 281:Middlewares/Third_Party/RealThread_RTOS_RT-Thread/src/ipc.c **** }
 266              		.loc 1 281 1 is_stmt 0 view .LVU81
 267 001e 1846     		mov	r0, r3
 268              	.LVL24:
 269              		.loc 1 281 1 view .LVU82
 270 0020 38BD     		pop	{r3, r4, r5, pc}
 271              		.loc 1 281 1 view .LVU83
 272              		.cfi_endproc
 273              	.LFE21:
 275              		.section	.text.rt_sem_delete,"ax",%progbits
 276              		.align	1
 277              		.global	rt_sem_delete
 278              		.syntax unified
 279              		.thumb
ARM GAS  C:\Users\GKQ\AppData\Local\Temp\ccAKSbHb.s 			page 13


 280              		.thumb_func
 281              		.fpu softvfp
 283              	rt_sem_delete:
 284              	.LVL25:
 285              	.LFB22:
 282:Middlewares/Third_Party/RealThread_RTOS_RT-Thread/src/ipc.c **** RTM_EXPORT(rt_sem_create);
 283:Middlewares/Third_Party/RealThread_RTOS_RT-Thread/src/ipc.c **** 
 284:Middlewares/Third_Party/RealThread_RTOS_RT-Thread/src/ipc.c **** /**
 285:Middlewares/Third_Party/RealThread_RTOS_RT-Thread/src/ipc.c ****  * This function will delete a semaphore object and release the memory
 286:Middlewares/Third_Party/RealThread_RTOS_RT-Thread/src/ipc.c ****  *
 287:Middlewares/Third_Party/RealThread_RTOS_RT-Thread/src/ipc.c ****  * @param sem the semaphore object
 288:Middlewares/Third_Party/RealThread_RTOS_RT-Thread/src/ipc.c ****  *
 289:Middlewares/Third_Party/RealThread_RTOS_RT-Thread/src/ipc.c ****  * @return the error code
 290:Middlewares/Third_Party/RealThread_RTOS_RT-Thread/src/ipc.c ****  *
 291:Middlewares/Third_Party/RealThread_RTOS_RT-Thread/src/ipc.c ****  * @see rt_sem_detach
 292:Middlewares/Third_Party/RealThread_RTOS_RT-Thread/src/ipc.c ****  */
 293:Middlewares/Third_Party/RealThread_RTOS_RT-Thread/src/ipc.c **** rt_err_t rt_sem_delete(rt_sem_t sem)
 294:Middlewares/Third_Party/RealThread_RTOS_RT-Thread/src/ipc.c **** {
 286              		.loc 1 294 1 is_stmt 1 view -0
 287              		.cfi_startproc
 288              		@ args = 0, pretend = 0, frame = 0
 289              		@ frame_needed = 0, uses_anonymous_args = 0
 290              		.loc 1 294 1 is_stmt 0 view .LVU85
 291 0000 70B5     		push	{r4, r5, r6, lr}
 292              	.LCFI3:
 293              		.cfi_def_cfa_offset 16
 294              		.cfi_offset 4, -16
 295              		.cfi_offset 5, -12
 296              		.cfi_offset 6, -8
 297              		.cfi_offset 14, -4
 298 0002 0446     		mov	r4, r0
 295:Middlewares/Third_Party/RealThread_RTOS_RT-Thread/src/ipc.c ****     RT_DEBUG_NOT_IN_INTERRUPT;
 299              		.loc 1 295 30 is_stmt 1 view .LVU86
 296:Middlewares/Third_Party/RealThread_RTOS_RT-Thread/src/ipc.c **** 
 297:Middlewares/Third_Party/RealThread_RTOS_RT-Thread/src/ipc.c ****     /* parameter check */
 298:Middlewares/Third_Party/RealThread_RTOS_RT-Thread/src/ipc.c ****     RT_ASSERT(sem != RT_NULL);
 300              		.loc 1 298 30 view .LVU87
 299:Middlewares/Third_Party/RealThread_RTOS_RT-Thread/src/ipc.c ****     RT_ASSERT(rt_object_get_type(&sem->parent.parent) == RT_Object_Class_Semaphore);
 301              		.loc 1 299 84 view .LVU88
 300:Middlewares/Third_Party/RealThread_RTOS_RT-Thread/src/ipc.c ****     RT_ASSERT(rt_object_is_systemobject(&sem->parent.parent) == RT_FALSE);
 302              		.loc 1 300 74 view .LVU89
 301:Middlewares/Third_Party/RealThread_RTOS_RT-Thread/src/ipc.c **** 
 302:Middlewares/Third_Party/RealThread_RTOS_RT-Thread/src/ipc.c ****     /* wakeup all suspend threads */
 303:Middlewares/Third_Party/RealThread_RTOS_RT-Thread/src/ipc.c ****     rt_ipc_list_resume_all(&(sem->parent.suspend_thread));
 303              		.loc 1 303 5 view .LVU90
 304 0004 00F11405 		add	r5, r0, #20
 305              	.LVL26:
 306              	.LBB45:
 307              	.LBI45:
 155:Middlewares/Third_Party/RealThread_RTOS_RT-Thread/src/ipc.c **** {
 308              		.loc 1 155 20 view .LVU91
 309              	.LBB46:
 157:Middlewares/Third_Party/RealThread_RTOS_RT-Thread/src/ipc.c ****     register rt_ubase_t temp;
 310              		.loc 1 157 5 view .LVU92
 158:Middlewares/Third_Party/RealThread_RTOS_RT-Thread/src/ipc.c **** 
 311              		.loc 1 158 5 view .LVU93
 161:Middlewares/Third_Party/RealThread_RTOS_RT-Thread/src/ipc.c ****     {
ARM GAS  C:\Users\GKQ\AppData\Local\Temp\ccAKSbHb.s 			page 14


 312              		.loc 1 161 5 view .LVU94
 313              	.L12:
 161:Middlewares/Third_Party/RealThread_RTOS_RT-Thread/src/ipc.c ****     {
 314              		.loc 1 161 11 view .LVU95
 315              	.LBB47:
 316              	.LBI47:
  98:Middlewares/Third_Party/RealThread_RTOS_RT-Thread/include/rtservice.h **** {
 317              		.loc 2 98 15 view .LVU96
 318              	.LBB48:
 319              		.loc 2 100 5 view .LVU97
 320              		.loc 2 100 13 is_stmt 0 view .LVU98
 321 0008 2B68     		ldr	r3, [r5]
 322              	.LVL27:
 323              		.loc 2 100 13 view .LVU99
 324              	.LBE48:
 325              	.LBE47:
 161:Middlewares/Third_Party/RealThread_RTOS_RT-Thread/src/ipc.c ****     {
 326              		.loc 1 161 11 view .LVU100
 327 000a 9D42     		cmp	r5, r3
 328 000c 0DD0     		beq	.L15
 164:Middlewares/Third_Party/RealThread_RTOS_RT-Thread/src/ipc.c **** 
 329              		.loc 1 164 9 is_stmt 1 view .LVU101
 164:Middlewares/Third_Party/RealThread_RTOS_RT-Thread/src/ipc.c **** 
 330              		.loc 1 164 16 is_stmt 0 view .LVU102
 331 000e FFF7FEFF 		bl	rt_hw_interrupt_disable
 332              	.LVL28:
 333 0012 0646     		mov	r6, r0
 334              	.LVL29:
 167:Middlewares/Third_Party/RealThread_RTOS_RT-Thread/src/ipc.c ****         /* set error code to RT_ERROR */
 335              		.loc 1 167 9 is_stmt 1 view .LVU103
 167:Middlewares/Third_Party/RealThread_RTOS_RT-Thread/src/ipc.c ****         /* set error code to RT_ERROR */
 336              		.loc 1 167 18 is_stmt 0 view .LVU104
 337 0014 2868     		ldr	r0, [r5]
 338              	.LVL30:
 169:Middlewares/Third_Party/RealThread_RTOS_RT-Thread/src/ipc.c **** 
 339              		.loc 1 169 9 is_stmt 1 view .LVU105
 169:Middlewares/Third_Party/RealThread_RTOS_RT-Thread/src/ipc.c **** 
 340              		.loc 1 169 23 is_stmt 0 view .LVU106
 341 0016 4FF0FF33 		mov	r3, #-1
 342 001a C361     		str	r3, [r0, #28]
 176:Middlewares/Third_Party/RealThread_RTOS_RT-Thread/src/ipc.c **** 
 343              		.loc 1 176 9 is_stmt 1 view .LVU107
 344 001c 1438     		subs	r0, r0, #20
 345              	.LVL31:
 176:Middlewares/Third_Party/RealThread_RTOS_RT-Thread/src/ipc.c **** 
 346              		.loc 1 176 9 is_stmt 0 view .LVU108
 347 001e FFF7FEFF 		bl	rt_thread_resume
 348              	.LVL32:
 179:Middlewares/Third_Party/RealThread_RTOS_RT-Thread/src/ipc.c ****     }
 349              		.loc 1 179 9 is_stmt 1 view .LVU109
 350 0022 3046     		mov	r0, r6
 351 0024 FFF7FEFF 		bl	rt_hw_interrupt_enable
 352              	.LVL33:
 353 0028 EEE7     		b	.L12
 354              	.LVL34:
 355              	.L15:
 182:Middlewares/Third_Party/RealThread_RTOS_RT-Thread/src/ipc.c **** }
ARM GAS  C:\Users\GKQ\AppData\Local\Temp\ccAKSbHb.s 			page 15


 356              		.loc 1 182 5 view .LVU110
 182:Middlewares/Third_Party/RealThread_RTOS_RT-Thread/src/ipc.c **** }
 357              		.loc 1 182 5 is_stmt 0 view .LVU111
 358              	.LBE46:
 359              	.LBE45:
 304:Middlewares/Third_Party/RealThread_RTOS_RT-Thread/src/ipc.c **** 
 305:Middlewares/Third_Party/RealThread_RTOS_RT-Thread/src/ipc.c ****     /* delete semaphore object */
 306:Middlewares/Third_Party/RealThread_RTOS_RT-Thread/src/ipc.c ****     rt_object_delete(&(sem->parent.parent));
 360              		.loc 1 306 5 is_stmt 1 view .LVU112
 361 002a 2046     		mov	r0, r4
 362 002c FFF7FEFF 		bl	rt_object_delete
 363              	.LVL35:
 307:Middlewares/Third_Party/RealThread_RTOS_RT-Thread/src/ipc.c **** 
 308:Middlewares/Third_Party/RealThread_RTOS_RT-Thread/src/ipc.c ****     return RT_EOK;
 364              		.loc 1 308 5 view .LVU113
 309:Middlewares/Third_Party/RealThread_RTOS_RT-Thread/src/ipc.c **** }
 365              		.loc 1 309 1 is_stmt 0 view .LVU114
 366 0030 0020     		movs	r0, #0
 367 0032 70BD     		pop	{r4, r5, r6, pc}
 368              		.loc 1 309 1 view .LVU115
 369              		.cfi_endproc
 370              	.LFE22:
 372              		.section	.text.rt_sem_take,"ax",%progbits
 373              		.align	1
 374              		.global	rt_sem_take
 375              		.syntax unified
 376              		.thumb
 377              		.thumb_func
 378              		.fpu softvfp
 380              	rt_sem_take:
 381              	.LVL36:
 382              	.LFB23:
 310:Middlewares/Third_Party/RealThread_RTOS_RT-Thread/src/ipc.c **** RTM_EXPORT(rt_sem_delete);
 311:Middlewares/Third_Party/RealThread_RTOS_RT-Thread/src/ipc.c **** #endif
 312:Middlewares/Third_Party/RealThread_RTOS_RT-Thread/src/ipc.c **** 
 313:Middlewares/Third_Party/RealThread_RTOS_RT-Thread/src/ipc.c **** /**
 314:Middlewares/Third_Party/RealThread_RTOS_RT-Thread/src/ipc.c ****  * This function will take a semaphore, if the semaphore is unavailable, the
 315:Middlewares/Third_Party/RealThread_RTOS_RT-Thread/src/ipc.c ****  * thread shall wait for a specified time.
 316:Middlewares/Third_Party/RealThread_RTOS_RT-Thread/src/ipc.c ****  *
 317:Middlewares/Third_Party/RealThread_RTOS_RT-Thread/src/ipc.c ****  * @param sem the semaphore object
 318:Middlewares/Third_Party/RealThread_RTOS_RT-Thread/src/ipc.c ****  * @param time the waiting time
 319:Middlewares/Third_Party/RealThread_RTOS_RT-Thread/src/ipc.c ****  *
 320:Middlewares/Third_Party/RealThread_RTOS_RT-Thread/src/ipc.c ****  * @return the error code
 321:Middlewares/Third_Party/RealThread_RTOS_RT-Thread/src/ipc.c ****  */
 322:Middlewares/Third_Party/RealThread_RTOS_RT-Thread/src/ipc.c **** rt_err_t rt_sem_take(rt_sem_t sem, rt_int32_t time)
 323:Middlewares/Third_Party/RealThread_RTOS_RT-Thread/src/ipc.c **** {
 383              		.loc 1 323 1 is_stmt 1 view -0
 384              		.cfi_startproc
 385              		@ args = 0, pretend = 0, frame = 8
 386              		@ frame_needed = 0, uses_anonymous_args = 0
 387              		.loc 1 323 1 is_stmt 0 view .LVU117
 388 0000 2DE9F041 		push	{r4, r5, r6, r7, r8, lr}
 389              	.LCFI4:
 390              		.cfi_def_cfa_offset 24
 391              		.cfi_offset 4, -24
 392              		.cfi_offset 5, -20
 393              		.cfi_offset 6, -16
ARM GAS  C:\Users\GKQ\AppData\Local\Temp\ccAKSbHb.s 			page 16


 394              		.cfi_offset 7, -12
 395              		.cfi_offset 8, -8
 396              		.cfi_offset 14, -4
 397 0004 82B0     		sub	sp, sp, #8
 398              	.LCFI5:
 399              		.cfi_def_cfa_offset 32
 400 0006 0446     		mov	r4, r0
 401 0008 0191     		str	r1, [sp, #4]
 324:Middlewares/Third_Party/RealThread_RTOS_RT-Thread/src/ipc.c ****     register rt_base_t temp;
 402              		.loc 1 324 5 is_stmt 1 view .LVU118
 325:Middlewares/Third_Party/RealThread_RTOS_RT-Thread/src/ipc.c ****     struct rt_thread *thread;
 403              		.loc 1 325 5 view .LVU119
 326:Middlewares/Third_Party/RealThread_RTOS_RT-Thread/src/ipc.c **** 
 327:Middlewares/Third_Party/RealThread_RTOS_RT-Thread/src/ipc.c ****     /* parameter check */
 328:Middlewares/Third_Party/RealThread_RTOS_RT-Thread/src/ipc.c ****     RT_ASSERT(sem != RT_NULL);
 404              		.loc 1 328 30 view .LVU120
 329:Middlewares/Third_Party/RealThread_RTOS_RT-Thread/src/ipc.c ****     RT_ASSERT(rt_object_get_type(&sem->parent.parent) == RT_Object_Class_Semaphore);
 405              		.loc 1 329 84 view .LVU121
 330:Middlewares/Third_Party/RealThread_RTOS_RT-Thread/src/ipc.c **** 
 331:Middlewares/Third_Party/RealThread_RTOS_RT-Thread/src/ipc.c ****     RT_OBJECT_HOOK_CALL(rt_object_trytake_hook, (&(sem->parent.parent)));
 406              		.loc 1 331 73 view .LVU122
 332:Middlewares/Third_Party/RealThread_RTOS_RT-Thread/src/ipc.c **** 
 333:Middlewares/Third_Party/RealThread_RTOS_RT-Thread/src/ipc.c ****     /* disable interrupt */
 334:Middlewares/Third_Party/RealThread_RTOS_RT-Thread/src/ipc.c ****     temp = rt_hw_interrupt_disable();
 407              		.loc 1 334 5 view .LVU123
 408              		.loc 1 334 12 is_stmt 0 view .LVU124
 409 000a FFF7FEFF 		bl	rt_hw_interrupt_disable
 410              	.LVL37:
 411              		.loc 1 334 12 view .LVU125
 412 000e 0746     		mov	r7, r0
 413              	.LVL38:
 335:Middlewares/Third_Party/RealThread_RTOS_RT-Thread/src/ipc.c **** 
 336:Middlewares/Third_Party/RealThread_RTOS_RT-Thread/src/ipc.c ****     RT_DEBUG_LOG(RT_DEBUG_IPC, ("thread %s take sem:%s, which value is: %d\n",
 337:Middlewares/Third_Party/RealThread_RTOS_RT-Thread/src/ipc.c ****                                 rt_thread_self()->name,
 338:Middlewares/Third_Party/RealThread_RTOS_RT-Thread/src/ipc.c ****                                 ((struct rt_object *)sem)->name,
 339:Middlewares/Third_Party/RealThread_RTOS_RT-Thread/src/ipc.c ****                                 sem->value));
 414              		.loc 1 339 45 is_stmt 1 view .LVU126
 340:Middlewares/Third_Party/RealThread_RTOS_RT-Thread/src/ipc.c **** 
 341:Middlewares/Third_Party/RealThread_RTOS_RT-Thread/src/ipc.c ****     if (sem->value > 0)
 415              		.loc 1 341 5 view .LVU127
 416              		.loc 1 341 12 is_stmt 0 view .LVU128
 417 0010 A38B     		ldrh	r3, [r4, #28]
 418              		.loc 1 341 8 view .LVU129
 419 0012 F3B9     		cbnz	r3, .L29
 342:Middlewares/Third_Party/RealThread_RTOS_RT-Thread/src/ipc.c ****     {
 343:Middlewares/Third_Party/RealThread_RTOS_RT-Thread/src/ipc.c ****         /* semaphore is available */
 344:Middlewares/Third_Party/RealThread_RTOS_RT-Thread/src/ipc.c ****         sem->value --;
 345:Middlewares/Third_Party/RealThread_RTOS_RT-Thread/src/ipc.c **** 
 346:Middlewares/Third_Party/RealThread_RTOS_RT-Thread/src/ipc.c ****         /* enable interrupt */
 347:Middlewares/Third_Party/RealThread_RTOS_RT-Thread/src/ipc.c ****         rt_hw_interrupt_enable(temp);
 348:Middlewares/Third_Party/RealThread_RTOS_RT-Thread/src/ipc.c ****     }
 349:Middlewares/Third_Party/RealThread_RTOS_RT-Thread/src/ipc.c ****     else
 350:Middlewares/Third_Party/RealThread_RTOS_RT-Thread/src/ipc.c ****     {
 351:Middlewares/Third_Party/RealThread_RTOS_RT-Thread/src/ipc.c ****         /* no waiting, return with timeout */
 352:Middlewares/Third_Party/RealThread_RTOS_RT-Thread/src/ipc.c ****         if (time == 0)
 420              		.loc 1 352 9 is_stmt 1 view .LVU130
 421              		.loc 1 352 18 is_stmt 0 view .LVU131
ARM GAS  C:\Users\GKQ\AppData\Local\Temp\ccAKSbHb.s 			page 17


 422 0014 019B     		ldr	r3, [sp, #4]
 423              		.loc 1 352 12 view .LVU132
 424 0016 13B3     		cbz	r3, .L30
 353:Middlewares/Third_Party/RealThread_RTOS_RT-Thread/src/ipc.c ****         {
 354:Middlewares/Third_Party/RealThread_RTOS_RT-Thread/src/ipc.c ****             rt_hw_interrupt_enable(temp);
 355:Middlewares/Third_Party/RealThread_RTOS_RT-Thread/src/ipc.c **** 
 356:Middlewares/Third_Party/RealThread_RTOS_RT-Thread/src/ipc.c ****             return -RT_ETIMEOUT;
 357:Middlewares/Third_Party/RealThread_RTOS_RT-Thread/src/ipc.c ****         }
 358:Middlewares/Third_Party/RealThread_RTOS_RT-Thread/src/ipc.c ****         else
 359:Middlewares/Third_Party/RealThread_RTOS_RT-Thread/src/ipc.c ****         {
 360:Middlewares/Third_Party/RealThread_RTOS_RT-Thread/src/ipc.c ****             /* current context checking */
 361:Middlewares/Third_Party/RealThread_RTOS_RT-Thread/src/ipc.c ****             RT_DEBUG_IN_THREAD_CONTEXT;
 425              		.loc 1 361 39 is_stmt 1 view .LVU133
 362:Middlewares/Third_Party/RealThread_RTOS_RT-Thread/src/ipc.c **** 
 363:Middlewares/Third_Party/RealThread_RTOS_RT-Thread/src/ipc.c ****             /* semaphore is unavailable, push to suspend list */
 364:Middlewares/Third_Party/RealThread_RTOS_RT-Thread/src/ipc.c ****             /* get current thread */
 365:Middlewares/Third_Party/RealThread_RTOS_RT-Thread/src/ipc.c ****             thread = rt_thread_self();
 426              		.loc 1 365 13 view .LVU134
 427              		.loc 1 365 22 is_stmt 0 view .LVU135
 428 0018 FFF7FEFF 		bl	rt_thread_self
 429              	.LVL39:
 430              		.loc 1 365 22 view .LVU136
 431 001c 0646     		mov	r6, r0
 432              	.LVL40:
 366:Middlewares/Third_Party/RealThread_RTOS_RT-Thread/src/ipc.c **** 
 367:Middlewares/Third_Party/RealThread_RTOS_RT-Thread/src/ipc.c ****             /* reset thread error number */
 368:Middlewares/Third_Party/RealThread_RTOS_RT-Thread/src/ipc.c ****             thread->error = RT_EOK;
 433              		.loc 1 368 13 is_stmt 1 view .LVU137
 434              		.loc 1 368 27 is_stmt 0 view .LVU138
 435 001e 0023     		movs	r3, #0
 436 0020 0363     		str	r3, [r0, #48]
 369:Middlewares/Third_Party/RealThread_RTOS_RT-Thread/src/ipc.c **** 
 370:Middlewares/Third_Party/RealThread_RTOS_RT-Thread/src/ipc.c ****             RT_DEBUG_LOG(RT_DEBUG_IPC, ("sem take: suspend thread - %s\n",
 371:Middlewares/Third_Party/RealThread_RTOS_RT-Thread/src/ipc.c ****                                         thread->name));
 437              		.loc 1 371 55 is_stmt 1 view .LVU139
 372:Middlewares/Third_Party/RealThread_RTOS_RT-Thread/src/ipc.c **** 
 373:Middlewares/Third_Party/RealThread_RTOS_RT-Thread/src/ipc.c ****             /* suspend thread */
 374:Middlewares/Third_Party/RealThread_RTOS_RT-Thread/src/ipc.c ****             rt_ipc_list_suspend(&(sem->parent.suspend_thread),
 438              		.loc 1 374 13 view .LVU140
 439 0022 04F11405 		add	r5, r4, #20
 440 0026 94F80980 		ldrb	r8, [r4, #9]	@ zero_extendqisi2
 441              	.LVL41:
 442              	.LBB58:
 443              	.LBI58:
  78:Middlewares/Third_Party/RealThread_RTOS_RT-Thread/src/ipc.c ****                                        struct rt_thread *thread,
 444              		.loc 1 78 20 view .LVU141
 445              	.LBB59:
  83:Middlewares/Third_Party/RealThread_RTOS_RT-Thread/src/ipc.c **** 
 446              		.loc 1 83 5 view .LVU142
 447 002a FFF7FEFF 		bl	rt_thread_suspend
 448              	.LVL42:
  85:Middlewares/Third_Party/RealThread_RTOS_RT-Thread/src/ipc.c ****     {
 449              		.loc 1 85 5 view .LVU143
 450 002e B8F1000F 		cmp	r8, #0
 451 0032 19D0     		beq	.L20
 452 0034 B8F1010F 		cmp	r8, #1
 453 0038 1FD0     		beq	.L21
ARM GAS  C:\Users\GKQ\AppData\Local\Temp\ccAKSbHb.s 			page 18


 454              	.L22:
 120:Middlewares/Third_Party/RealThread_RTOS_RT-Thread/src/ipc.c **** }
 455              		.loc 1 120 5 view .LVU144
 456              	.LVL43:
 120:Middlewares/Third_Party/RealThread_RTOS_RT-Thread/src/ipc.c **** }
 457              		.loc 1 120 5 is_stmt 0 view .LVU145
 458              	.LBE59:
 459              	.LBE58:
 375:Middlewares/Third_Party/RealThread_RTOS_RT-Thread/src/ipc.c ****                                 thread,
 376:Middlewares/Third_Party/RealThread_RTOS_RT-Thread/src/ipc.c ****                                 sem->parent.parent.flag);
 377:Middlewares/Third_Party/RealThread_RTOS_RT-Thread/src/ipc.c **** 
 378:Middlewares/Third_Party/RealThread_RTOS_RT-Thread/src/ipc.c ****             /* has waiting time, start thread timer */
 379:Middlewares/Third_Party/RealThread_RTOS_RT-Thread/src/ipc.c ****             if (time > 0)
 460              		.loc 1 379 13 is_stmt 1 view .LVU146
 461              		.loc 1 379 22 is_stmt 0 view .LVU147
 462 003a 019B     		ldr	r3, [sp, #4]
 463              		.loc 1 379 16 view .LVU148
 464 003c 002B     		cmp	r3, #0
 465 003e 3ADC     		bgt	.L31
 466              	.LVL44:
 467              	.L27:
 380:Middlewares/Third_Party/RealThread_RTOS_RT-Thread/src/ipc.c ****             {
 381:Middlewares/Third_Party/RealThread_RTOS_RT-Thread/src/ipc.c ****                 RT_DEBUG_LOG(RT_DEBUG_IPC, ("set thread:%s to timer list\n",
 382:Middlewares/Third_Party/RealThread_RTOS_RT-Thread/src/ipc.c ****                                             thread->name));
 383:Middlewares/Third_Party/RealThread_RTOS_RT-Thread/src/ipc.c **** 
 384:Middlewares/Third_Party/RealThread_RTOS_RT-Thread/src/ipc.c ****                 /* reset the timeout of thread timer and start it */
 385:Middlewares/Third_Party/RealThread_RTOS_RT-Thread/src/ipc.c ****                 rt_timer_control(&(thread->thread_timer),
 386:Middlewares/Third_Party/RealThread_RTOS_RT-Thread/src/ipc.c ****                                  RT_TIMER_CTRL_SET_TIME,
 387:Middlewares/Third_Party/RealThread_RTOS_RT-Thread/src/ipc.c ****                                  &time);
 388:Middlewares/Third_Party/RealThread_RTOS_RT-Thread/src/ipc.c ****                 rt_timer_start(&(thread->thread_timer));
 389:Middlewares/Third_Party/RealThread_RTOS_RT-Thread/src/ipc.c ****             }
 390:Middlewares/Third_Party/RealThread_RTOS_RT-Thread/src/ipc.c **** 
 391:Middlewares/Third_Party/RealThread_RTOS_RT-Thread/src/ipc.c ****             /* enable interrupt */
 392:Middlewares/Third_Party/RealThread_RTOS_RT-Thread/src/ipc.c ****             rt_hw_interrupt_enable(temp);
 468              		.loc 1 392 13 is_stmt 1 view .LVU149
 469 0040 3846     		mov	r0, r7
 470 0042 FFF7FEFF 		bl	rt_hw_interrupt_enable
 471              	.LVL45:
 393:Middlewares/Third_Party/RealThread_RTOS_RT-Thread/src/ipc.c **** 
 394:Middlewares/Third_Party/RealThread_RTOS_RT-Thread/src/ipc.c ****             /* do schedule */
 395:Middlewares/Third_Party/RealThread_RTOS_RT-Thread/src/ipc.c ****             rt_schedule();
 472              		.loc 1 395 13 view .LVU150
 473 0046 FFF7FEFF 		bl	rt_schedule
 474              	.LVL46:
 396:Middlewares/Third_Party/RealThread_RTOS_RT-Thread/src/ipc.c **** 
 397:Middlewares/Third_Party/RealThread_RTOS_RT-Thread/src/ipc.c ****             if (thread->error != RT_EOK)
 475              		.loc 1 397 13 view .LVU151
 476              		.loc 1 397 23 is_stmt 0 view .LVU152
 477 004a 306B     		ldr	r0, [r6, #48]
 478              	.LVL47:
 479              	.L16:
 398:Middlewares/Third_Party/RealThread_RTOS_RT-Thread/src/ipc.c ****             {
 399:Middlewares/Third_Party/RealThread_RTOS_RT-Thread/src/ipc.c ****                 return thread->error;
 400:Middlewares/Third_Party/RealThread_RTOS_RT-Thread/src/ipc.c ****             }
 401:Middlewares/Third_Party/RealThread_RTOS_RT-Thread/src/ipc.c ****         }
 402:Middlewares/Third_Party/RealThread_RTOS_RT-Thread/src/ipc.c ****     }
 403:Middlewares/Third_Party/RealThread_RTOS_RT-Thread/src/ipc.c **** 
ARM GAS  C:\Users\GKQ\AppData\Local\Temp\ccAKSbHb.s 			page 19


 404:Middlewares/Third_Party/RealThread_RTOS_RT-Thread/src/ipc.c ****     RT_OBJECT_HOOK_CALL(rt_object_take_hook, (&(sem->parent.parent)));
 405:Middlewares/Third_Party/RealThread_RTOS_RT-Thread/src/ipc.c **** 
 406:Middlewares/Third_Party/RealThread_RTOS_RT-Thread/src/ipc.c ****     return RT_EOK;
 407:Middlewares/Third_Party/RealThread_RTOS_RT-Thread/src/ipc.c **** }
 480              		.loc 1 407 1 view .LVU153
 481 004c 02B0     		add	sp, sp, #8
 482              	.LCFI6:
 483              		.cfi_remember_state
 484              		.cfi_def_cfa_offset 24
 485              		@ sp needed
 486 004e BDE8F081 		pop	{r4, r5, r6, r7, r8, pc}
 487              	.LVL48:
 488              	.L29:
 489              	.LCFI7:
 490              		.cfi_restore_state
 344:Middlewares/Third_Party/RealThread_RTOS_RT-Thread/src/ipc.c **** 
 491              		.loc 1 344 9 is_stmt 1 view .LVU154
 344:Middlewares/Third_Party/RealThread_RTOS_RT-Thread/src/ipc.c **** 
 492              		.loc 1 344 20 is_stmt 0 view .LVU155
 493 0052 013B     		subs	r3, r3, #1
 494 0054 A383     		strh	r3, [r4, #28]	@ movhi
 347:Middlewares/Third_Party/RealThread_RTOS_RT-Thread/src/ipc.c ****     }
 495              		.loc 1 347 9 is_stmt 1 view .LVU156
 496 0056 FFF7FEFF 		bl	rt_hw_interrupt_enable
 497              	.LVL49:
 406:Middlewares/Third_Party/RealThread_RTOS_RT-Thread/src/ipc.c **** }
 498              		.loc 1 406 12 is_stmt 0 view .LVU157
 499 005a 0020     		movs	r0, #0
 500 005c F6E7     		b	.L16
 501              	.LVL50:
 502              	.L30:
 354:Middlewares/Third_Party/RealThread_RTOS_RT-Thread/src/ipc.c **** 
 503              		.loc 1 354 13 is_stmt 1 view .LVU158
 504 005e FFF7FEFF 		bl	rt_hw_interrupt_enable
 505              	.LVL51:
 356:Middlewares/Third_Party/RealThread_RTOS_RT-Thread/src/ipc.c ****         }
 506              		.loc 1 356 13 view .LVU159
 356:Middlewares/Third_Party/RealThread_RTOS_RT-Thread/src/ipc.c ****         }
 507              		.loc 1 356 20 is_stmt 0 view .LVU160
 508 0062 6FF00100 		mvn	r0, #1
 509 0066 F1E7     		b	.L16
 510              	.LVL52:
 511              	.L20:
 512              	.LBB68:
 513              	.LBB67:
  88:Middlewares/Third_Party/RealThread_RTOS_RT-Thread/src/ipc.c ****         break;
 514              		.loc 1 88 9 is_stmt 1 view .LVU161
 515 0068 06F11403 		add	r3, r6, #20
 516              	.LVL53:
 517              	.LBB60:
 518              	.LBI60:
  73:Middlewares/Third_Party/RealThread_RTOS_RT-Thread/include/rtservice.h **** {
 519              		.loc 2 73 16 view .LVU162
 520              	.LBB61:
  75:Middlewares/Third_Party/RealThread_RTOS_RT-Thread/include/rtservice.h ****     n->prev = l->prev;
 521              		.loc 2 75 5 view .LVU163
  75:Middlewares/Third_Party/RealThread_RTOS_RT-Thread/include/rtservice.h ****     n->prev = l->prev;
ARM GAS  C:\Users\GKQ\AppData\Local\Temp\ccAKSbHb.s 			page 20


 522              		.loc 2 75 6 is_stmt 0 view .LVU164
 523 006c 6A68     		ldr	r2, [r5, #4]
  75:Middlewares/Third_Party/RealThread_RTOS_RT-Thread/include/rtservice.h ****     n->prev = l->prev;
 524              		.loc 2 75 19 view .LVU165
 525 006e 1360     		str	r3, [r2]
  76:Middlewares/Third_Party/RealThread_RTOS_RT-Thread/include/rtservice.h **** 
 526              		.loc 2 76 5 is_stmt 1 view .LVU166
  76:Middlewares/Third_Party/RealThread_RTOS_RT-Thread/include/rtservice.h **** 
 527              		.loc 2 76 16 is_stmt 0 view .LVU167
 528 0070 6A68     		ldr	r2, [r5, #4]
  76:Middlewares/Third_Party/RealThread_RTOS_RT-Thread/include/rtservice.h **** 
 529              		.loc 2 76 13 view .LVU168
 530 0072 B261     		str	r2, [r6, #24]
  78:Middlewares/Third_Party/RealThread_RTOS_RT-Thread/include/rtservice.h ****     n->next = l;
 531              		.loc 2 78 5 is_stmt 1 view .LVU169
  78:Middlewares/Third_Party/RealThread_RTOS_RT-Thread/include/rtservice.h ****     n->next = l;
 532              		.loc 2 78 13 is_stmt 0 view .LVU170
 533 0074 6B60     		str	r3, [r5, #4]
  79:Middlewares/Third_Party/RealThread_RTOS_RT-Thread/include/rtservice.h **** }
 534              		.loc 2 79 5 is_stmt 1 view .LVU171
  79:Middlewares/Third_Party/RealThread_RTOS_RT-Thread/include/rtservice.h **** }
 535              		.loc 2 79 13 is_stmt 0 view .LVU172
 536 0076 7561     		str	r5, [r6, #20]
  80:Middlewares/Third_Party/RealThread_RTOS_RT-Thread/include/rtservice.h **** 
 537              		.loc 2 80 1 view .LVU173
 538 0078 DFE7     		b	.L22
 539              	.LVL54:
 540              	.L21:
  80:Middlewares/Third_Party/RealThread_RTOS_RT-Thread/include/rtservice.h **** 
 541              		.loc 2 80 1 view .LVU174
 542              	.LBE61:
 543              	.LBE60:
 544              	.LBB62:
  93:Middlewares/Third_Party/RealThread_RTOS_RT-Thread/src/ipc.c ****             struct rt_thread *sthread;
 545              		.loc 1 93 13 is_stmt 1 view .LVU175
  94:Middlewares/Third_Party/RealThread_RTOS_RT-Thread/src/ipc.c **** 
 546              		.loc 1 94 13 view .LVU176
  97:Middlewares/Third_Party/RealThread_RTOS_RT-Thread/src/ipc.c ****             {
 547              		.loc 1 97 13 view .LVU177
  97:Middlewares/Third_Party/RealThread_RTOS_RT-Thread/src/ipc.c ****             {
 548              		.loc 1 97 20 is_stmt 0 view .LVU178
 549 007a 6369     		ldr	r3, [r4, #20]
 550              	.LVL55:
 551              	.L23:
  97:Middlewares/Third_Party/RealThread_RTOS_RT-Thread/src/ipc.c ****             {
 552              		.loc 1 97 34 is_stmt 1 view .LVU179
  97:Middlewares/Third_Party/RealThread_RTOS_RT-Thread/src/ipc.c ****             {
 553              		.loc 1 97 13 is_stmt 0 view .LVU180
 554 007c 9D42     		cmp	r5, r3
 555 007e 0FD0     		beq	.L25
  99:Middlewares/Third_Party/RealThread_RTOS_RT-Thread/src/ipc.c **** 
 556              		.loc 1 99 17 is_stmt 1 view .LVU181
 557              	.LVL56:
 102:Middlewares/Third_Party/RealThread_RTOS_RT-Thread/src/ipc.c ****                 {
 558              		.loc 1 102 17 view .LVU182
 102:Middlewares/Third_Party/RealThread_RTOS_RT-Thread/src/ipc.c ****                 {
 559              		.loc 1 102 27 is_stmt 0 view .LVU183
ARM GAS  C:\Users\GKQ\AppData\Local\Temp\ccAKSbHb.s 			page 21


 560 0080 96F83510 		ldrb	r1, [r6, #53]	@ zero_extendqisi2
 102:Middlewares/Third_Party/RealThread_RTOS_RT-Thread/src/ipc.c ****                 {
 561              		.loc 1 102 55 view .LVU184
 562 0084 93F82120 		ldrb	r2, [r3, #33]	@ zero_extendqisi2
 102:Middlewares/Third_Party/RealThread_RTOS_RT-Thread/src/ipc.c ****                 {
 563              		.loc 1 102 20 view .LVU185
 564 0088 9142     		cmp	r1, r2
 565 008a 01D3     		bcc	.L32
  97:Middlewares/Third_Party/RealThread_RTOS_RT-Thread/src/ipc.c ****             {
 566              		.loc 1 97 45 is_stmt 1 view .LVU186
  97:Middlewares/Third_Party/RealThread_RTOS_RT-Thread/src/ipc.c ****             {
 567              		.loc 1 97 47 is_stmt 0 view .LVU187
 568 008c 1B68     		ldr	r3, [r3]
 569              	.LVL57:
  97:Middlewares/Third_Party/RealThread_RTOS_RT-Thread/src/ipc.c ****             {
 570              		.loc 1 97 47 view .LVU188
 571 008e F5E7     		b	.L23
 572              	.LVL58:
 573              	.L32:
 105:Middlewares/Third_Party/RealThread_RTOS_RT-Thread/src/ipc.c ****                     break;
 574              		.loc 1 105 21 is_stmt 1 view .LVU189
 575 0090 06F11402 		add	r2, r6, #20
 576              	.LVL59:
 577              	.LBB63:
 578              	.LBI63:
  73:Middlewares/Third_Party/RealThread_RTOS_RT-Thread/include/rtservice.h **** {
 579              		.loc 2 73 16 view .LVU190
 580              	.LBB64:
  75:Middlewares/Third_Party/RealThread_RTOS_RT-Thread/include/rtservice.h ****     n->prev = l->prev;
 581              		.loc 2 75 5 view .LVU191
  75:Middlewares/Third_Party/RealThread_RTOS_RT-Thread/include/rtservice.h ****     n->prev = l->prev;
 582              		.loc 2 75 6 is_stmt 0 view .LVU192
 583 0094 5968     		ldr	r1, [r3, #4]
  75:Middlewares/Third_Party/RealThread_RTOS_RT-Thread/include/rtservice.h ****     n->prev = l->prev;
 584              		.loc 2 75 19 view .LVU193
 585 0096 0A60     		str	r2, [r1]
  76:Middlewares/Third_Party/RealThread_RTOS_RT-Thread/include/rtservice.h **** 
 586              		.loc 2 76 5 is_stmt 1 view .LVU194
  76:Middlewares/Third_Party/RealThread_RTOS_RT-Thread/include/rtservice.h **** 
 587              		.loc 2 76 16 is_stmt 0 view .LVU195
 588 0098 5968     		ldr	r1, [r3, #4]
  76:Middlewares/Third_Party/RealThread_RTOS_RT-Thread/include/rtservice.h **** 
 589              		.loc 2 76 13 view .LVU196
 590 009a B161     		str	r1, [r6, #24]
  78:Middlewares/Third_Party/RealThread_RTOS_RT-Thread/include/rtservice.h ****     n->next = l;
 591              		.loc 2 78 5 is_stmt 1 view .LVU197
  78:Middlewares/Third_Party/RealThread_RTOS_RT-Thread/include/rtservice.h ****     n->next = l;
 592              		.loc 2 78 13 is_stmt 0 view .LVU198
 593 009c 5A60     		str	r2, [r3, #4]
  79:Middlewares/Third_Party/RealThread_RTOS_RT-Thread/include/rtservice.h **** }
 594              		.loc 2 79 5 is_stmt 1 view .LVU199
  79:Middlewares/Third_Party/RealThread_RTOS_RT-Thread/include/rtservice.h **** }
 595              		.loc 2 79 13 is_stmt 0 view .LVU200
 596 009e 7361     		str	r3, [r6, #20]
 597              	.LVL60:
 598              	.L25:
  79:Middlewares/Third_Party/RealThread_RTOS_RT-Thread/include/rtservice.h **** }
ARM GAS  C:\Users\GKQ\AppData\Local\Temp\ccAKSbHb.s 			page 22


 599              		.loc 2 79 13 view .LVU201
 600              	.LBE64:
 601              	.LBE63:
 114:Middlewares/Third_Party/RealThread_RTOS_RT-Thread/src/ipc.c ****                 rt_list_insert_before(list, &(thread->tlist));
 602              		.loc 1 114 13 is_stmt 1 view .LVU202
 114:Middlewares/Third_Party/RealThread_RTOS_RT-Thread/src/ipc.c ****                 rt_list_insert_before(list, &(thread->tlist));
 603              		.loc 1 114 16 is_stmt 0 view .LVU203
 604 00a0 9D42     		cmp	r5, r3
 605 00a2 CAD1     		bne	.L22
 115:Middlewares/Third_Party/RealThread_RTOS_RT-Thread/src/ipc.c ****         }
 606              		.loc 1 115 17 is_stmt 1 view .LVU204
 607 00a4 06F11403 		add	r3, r6, #20
 608              	.LVL61:
 609              	.LBB65:
 610              	.LBI65:
  73:Middlewares/Third_Party/RealThread_RTOS_RT-Thread/include/rtservice.h **** {
 611              		.loc 2 73 16 view .LVU205
 612              	.LBB66:
  75:Middlewares/Third_Party/RealThread_RTOS_RT-Thread/include/rtservice.h ****     n->prev = l->prev;
 613              		.loc 2 75 5 view .LVU206
  75:Middlewares/Third_Party/RealThread_RTOS_RT-Thread/include/rtservice.h ****     n->prev = l->prev;
 614              		.loc 2 75 6 is_stmt 0 view .LVU207
 615 00a8 6A68     		ldr	r2, [r5, #4]
  75:Middlewares/Third_Party/RealThread_RTOS_RT-Thread/include/rtservice.h ****     n->prev = l->prev;
 616              		.loc 2 75 19 view .LVU208
 617 00aa 1360     		str	r3, [r2]
  76:Middlewares/Third_Party/RealThread_RTOS_RT-Thread/include/rtservice.h **** 
 618              		.loc 2 76 5 is_stmt 1 view .LVU209
  76:Middlewares/Third_Party/RealThread_RTOS_RT-Thread/include/rtservice.h **** 
 619              		.loc 2 76 16 is_stmt 0 view .LVU210
 620 00ac 6A68     		ldr	r2, [r5, #4]
  76:Middlewares/Third_Party/RealThread_RTOS_RT-Thread/include/rtservice.h **** 
 621              		.loc 2 76 13 view .LVU211
 622 00ae B261     		str	r2, [r6, #24]
  78:Middlewares/Third_Party/RealThread_RTOS_RT-Thread/include/rtservice.h ****     n->next = l;
 623              		.loc 2 78 5 is_stmt 1 view .LVU212
  78:Middlewares/Third_Party/RealThread_RTOS_RT-Thread/include/rtservice.h ****     n->next = l;
 624              		.loc 2 78 13 is_stmt 0 view .LVU213
 625 00b0 6B60     		str	r3, [r5, #4]
  79:Middlewares/Third_Party/RealThread_RTOS_RT-Thread/include/rtservice.h **** }
 626              		.loc 2 79 5 is_stmt 1 view .LVU214
  79:Middlewares/Third_Party/RealThread_RTOS_RT-Thread/include/rtservice.h **** }
 627              		.loc 2 79 13 is_stmt 0 view .LVU215
 628 00b2 7561     		str	r5, [r6, #20]
  80:Middlewares/Third_Party/RealThread_RTOS_RT-Thread/include/rtservice.h **** 
 629              		.loc 2 80 1 view .LVU216
 630 00b4 C1E7     		b	.L22
 631              	.LVL62:
 632              	.L31:
  80:Middlewares/Third_Party/RealThread_RTOS_RT-Thread/include/rtservice.h **** 
 633              		.loc 2 80 1 view .LVU217
 634              	.LBE66:
 635              	.LBE65:
 636              	.LBE62:
 637              	.LBE67:
 638              	.LBE68:
 382:Middlewares/Third_Party/RealThread_RTOS_RT-Thread/src/ipc.c **** 
ARM GAS  C:\Users\GKQ\AppData\Local\Temp\ccAKSbHb.s 			page 23


 639              		.loc 1 382 59 is_stmt 1 view .LVU218
 385:Middlewares/Third_Party/RealThread_RTOS_RT-Thread/src/ipc.c ****                                  RT_TIMER_CTRL_SET_TIME,
 640              		.loc 1 385 17 view .LVU219
 641 00b6 06F14404 		add	r4, r6, #68
 642              	.LVL63:
 385:Middlewares/Third_Party/RealThread_RTOS_RT-Thread/src/ipc.c ****                                  RT_TIMER_CTRL_SET_TIME,
 643              		.loc 1 385 17 is_stmt 0 view .LVU220
 644 00ba 01AA     		add	r2, sp, #4
 645 00bc 0021     		movs	r1, #0
 646 00be 2046     		mov	r0, r4
 647 00c0 FFF7FEFF 		bl	rt_timer_control
 648              	.LVL64:
 388:Middlewares/Third_Party/RealThread_RTOS_RT-Thread/src/ipc.c ****             }
 649              		.loc 1 388 17 is_stmt 1 view .LVU221
 650 00c4 2046     		mov	r0, r4
 651 00c6 FFF7FEFF 		bl	rt_timer_start
 652              	.LVL65:
 653 00ca B9E7     		b	.L27
 654              		.cfi_endproc
 655              	.LFE23:
 657              		.section	.text.rt_sem_trytake,"ax",%progbits
 658              		.align	1
 659              		.global	rt_sem_trytake
 660              		.syntax unified
 661              		.thumb
 662              		.thumb_func
 663              		.fpu softvfp
 665              	rt_sem_trytake:
 666              	.LVL66:
 667              	.LFB24:
 408:Middlewares/Third_Party/RealThread_RTOS_RT-Thread/src/ipc.c **** RTM_EXPORT(rt_sem_take);
 409:Middlewares/Third_Party/RealThread_RTOS_RT-Thread/src/ipc.c **** 
 410:Middlewares/Third_Party/RealThread_RTOS_RT-Thread/src/ipc.c **** /**
 411:Middlewares/Third_Party/RealThread_RTOS_RT-Thread/src/ipc.c ****  * This function will try to take a semaphore and immediately return
 412:Middlewares/Third_Party/RealThread_RTOS_RT-Thread/src/ipc.c ****  *
 413:Middlewares/Third_Party/RealThread_RTOS_RT-Thread/src/ipc.c ****  * @param sem the semaphore object
 414:Middlewares/Third_Party/RealThread_RTOS_RT-Thread/src/ipc.c ****  *
 415:Middlewares/Third_Party/RealThread_RTOS_RT-Thread/src/ipc.c ****  * @return the error code
 416:Middlewares/Third_Party/RealThread_RTOS_RT-Thread/src/ipc.c ****  */
 417:Middlewares/Third_Party/RealThread_RTOS_RT-Thread/src/ipc.c **** rt_err_t rt_sem_trytake(rt_sem_t sem)
 418:Middlewares/Third_Party/RealThread_RTOS_RT-Thread/src/ipc.c **** {
 668              		.loc 1 418 1 view -0
 669              		.cfi_startproc
 670              		@ args = 0, pretend = 0, frame = 0
 671              		@ frame_needed = 0, uses_anonymous_args = 0
 672              		.loc 1 418 1 is_stmt 0 view .LVU223
 673 0000 08B5     		push	{r3, lr}
 674              	.LCFI8:
 675              		.cfi_def_cfa_offset 8
 676              		.cfi_offset 3, -8
 677              		.cfi_offset 14, -4
 419:Middlewares/Third_Party/RealThread_RTOS_RT-Thread/src/ipc.c ****     return rt_sem_take(sem, 0);
 678              		.loc 1 419 5 is_stmt 1 view .LVU224
 679              		.loc 1 419 12 is_stmt 0 view .LVU225
 680 0002 0021     		movs	r1, #0
 681 0004 FFF7FEFF 		bl	rt_sem_take
 682              	.LVL67:
ARM GAS  C:\Users\GKQ\AppData\Local\Temp\ccAKSbHb.s 			page 24


 420:Middlewares/Third_Party/RealThread_RTOS_RT-Thread/src/ipc.c **** }
 683              		.loc 1 420 1 view .LVU226
 684 0008 08BD     		pop	{r3, pc}
 685              		.cfi_endproc
 686              	.LFE24:
 688              		.section	.text.rt_sem_release,"ax",%progbits
 689              		.align	1
 690              		.global	rt_sem_release
 691              		.syntax unified
 692              		.thumb
 693              		.thumb_func
 694              		.fpu softvfp
 696              	rt_sem_release:
 697              	.LVL68:
 698              	.LFB25:
 421:Middlewares/Third_Party/RealThread_RTOS_RT-Thread/src/ipc.c **** RTM_EXPORT(rt_sem_trytake);
 422:Middlewares/Third_Party/RealThread_RTOS_RT-Thread/src/ipc.c **** 
 423:Middlewares/Third_Party/RealThread_RTOS_RT-Thread/src/ipc.c **** /**
 424:Middlewares/Third_Party/RealThread_RTOS_RT-Thread/src/ipc.c ****  * This function will release a semaphore, if there are threads suspended on
 425:Middlewares/Third_Party/RealThread_RTOS_RT-Thread/src/ipc.c ****  * semaphore, it will be waked up.
 426:Middlewares/Third_Party/RealThread_RTOS_RT-Thread/src/ipc.c ****  *
 427:Middlewares/Third_Party/RealThread_RTOS_RT-Thread/src/ipc.c ****  * @param sem the semaphore object
 428:Middlewares/Third_Party/RealThread_RTOS_RT-Thread/src/ipc.c ****  *
 429:Middlewares/Third_Party/RealThread_RTOS_RT-Thread/src/ipc.c ****  * @return the error code
 430:Middlewares/Third_Party/RealThread_RTOS_RT-Thread/src/ipc.c ****  */
 431:Middlewares/Third_Party/RealThread_RTOS_RT-Thread/src/ipc.c **** rt_err_t rt_sem_release(rt_sem_t sem)
 432:Middlewares/Third_Party/RealThread_RTOS_RT-Thread/src/ipc.c **** {
 699              		.loc 1 432 1 is_stmt 1 view -0
 700              		.cfi_startproc
 701              		@ args = 0, pretend = 0, frame = 0
 702              		@ frame_needed = 0, uses_anonymous_args = 0
 703              		.loc 1 432 1 is_stmt 0 view .LVU228
 704 0000 38B5     		push	{r3, r4, r5, lr}
 705              	.LCFI9:
 706              		.cfi_def_cfa_offset 16
 707              		.cfi_offset 3, -16
 708              		.cfi_offset 4, -12
 709              		.cfi_offset 5, -8
 710              		.cfi_offset 14, -4
 711 0002 0446     		mov	r4, r0
 433:Middlewares/Third_Party/RealThread_RTOS_RT-Thread/src/ipc.c ****     register rt_base_t temp;
 712              		.loc 1 433 5 is_stmt 1 view .LVU229
 434:Middlewares/Third_Party/RealThread_RTOS_RT-Thread/src/ipc.c ****     register rt_bool_t need_schedule;
 713              		.loc 1 434 5 view .LVU230
 435:Middlewares/Third_Party/RealThread_RTOS_RT-Thread/src/ipc.c **** 
 436:Middlewares/Third_Party/RealThread_RTOS_RT-Thread/src/ipc.c ****     /* parameter check */
 437:Middlewares/Third_Party/RealThread_RTOS_RT-Thread/src/ipc.c ****     RT_ASSERT(sem != RT_NULL);
 714              		.loc 1 437 30 view .LVU231
 438:Middlewares/Third_Party/RealThread_RTOS_RT-Thread/src/ipc.c ****     RT_ASSERT(rt_object_get_type(&sem->parent.parent) == RT_Object_Class_Semaphore);
 715              		.loc 1 438 84 view .LVU232
 439:Middlewares/Third_Party/RealThread_RTOS_RT-Thread/src/ipc.c **** 
 440:Middlewares/Third_Party/RealThread_RTOS_RT-Thread/src/ipc.c ****     RT_OBJECT_HOOK_CALL(rt_object_put_hook, (&(sem->parent.parent)));
 716              		.loc 1 440 69 view .LVU233
 441:Middlewares/Third_Party/RealThread_RTOS_RT-Thread/src/ipc.c **** 
 442:Middlewares/Third_Party/RealThread_RTOS_RT-Thread/src/ipc.c ****     need_schedule = RT_FALSE;
 717              		.loc 1 442 5 view .LVU234
 718              	.LVL69:
ARM GAS  C:\Users\GKQ\AppData\Local\Temp\ccAKSbHb.s 			page 25


 443:Middlewares/Third_Party/RealThread_RTOS_RT-Thread/src/ipc.c **** 
 444:Middlewares/Third_Party/RealThread_RTOS_RT-Thread/src/ipc.c ****     /* disable interrupt */
 445:Middlewares/Third_Party/RealThread_RTOS_RT-Thread/src/ipc.c ****     temp = rt_hw_interrupt_disable();
 719              		.loc 1 445 5 view .LVU235
 720              		.loc 1 445 12 is_stmt 0 view .LVU236
 721 0004 FFF7FEFF 		bl	rt_hw_interrupt_disable
 722              	.LVL70:
 723              		.loc 1 445 12 view .LVU237
 724 0008 0546     		mov	r5, r0
 725              	.LVL71:
 446:Middlewares/Third_Party/RealThread_RTOS_RT-Thread/src/ipc.c **** 
 447:Middlewares/Third_Party/RealThread_RTOS_RT-Thread/src/ipc.c ****     RT_DEBUG_LOG(RT_DEBUG_IPC, ("thread %s releases sem:%s, which value is: %d\n",
 448:Middlewares/Third_Party/RealThread_RTOS_RT-Thread/src/ipc.c ****                                 rt_thread_self()->name,
 449:Middlewares/Third_Party/RealThread_RTOS_RT-Thread/src/ipc.c ****                                 ((struct rt_object *)sem)->name,
 450:Middlewares/Third_Party/RealThread_RTOS_RT-Thread/src/ipc.c ****                                 sem->value));
 726              		.loc 1 450 45 is_stmt 1 view .LVU238
 451:Middlewares/Third_Party/RealThread_RTOS_RT-Thread/src/ipc.c **** 
 452:Middlewares/Third_Party/RealThread_RTOS_RT-Thread/src/ipc.c ****     if (!rt_list_isempty(&sem->parent.suspend_thread))
 727              		.loc 1 452 5 view .LVU239
 728              		.loc 1 452 26 is_stmt 0 view .LVU240
 729 000a 04F11403 		add	r3, r4, #20
 730              	.LVL72:
 731              	.LBB69:
 732              	.LBI69:
  98:Middlewares/Third_Party/RealThread_RTOS_RT-Thread/include/rtservice.h **** {
 733              		.loc 2 98 15 is_stmt 1 view .LVU241
 734              	.LBB70:
 735              		.loc 2 100 5 view .LVU242
 736              		.loc 2 100 13 is_stmt 0 view .LVU243
 737 000e 6069     		ldr	r0, [r4, #20]
 738              	.LVL73:
 739              		.loc 2 100 13 view .LVU244
 740              	.LBE70:
 741              	.LBE69:
 742              		.loc 1 452 8 view .LVU245
 743 0010 8342     		cmp	r3, r0
 744 0012 09D0     		beq	.L36
 453:Middlewares/Third_Party/RealThread_RTOS_RT-Thread/src/ipc.c ****     {
 454:Middlewares/Third_Party/RealThread_RTOS_RT-Thread/src/ipc.c ****         /* resume the suspended thread */
 455:Middlewares/Third_Party/RealThread_RTOS_RT-Thread/src/ipc.c ****         rt_ipc_list_resume(&(sem->parent.suspend_thread));
 745              		.loc 1 455 9 is_stmt 1 view .LVU246
 746              	.LVL74:
 747              	.LBB71:
 748              	.LBI71:
 132:Middlewares/Third_Party/RealThread_RTOS_RT-Thread/src/ipc.c **** {
 749              		.loc 1 132 20 view .LVU247
 750              	.LBB72:
 134:Middlewares/Third_Party/RealThread_RTOS_RT-Thread/src/ipc.c **** 
 751              		.loc 1 134 5 view .LVU248
 137:Middlewares/Third_Party/RealThread_RTOS_RT-Thread/src/ipc.c **** 
 752              		.loc 1 137 5 view .LVU249
 139:Middlewares/Third_Party/RealThread_RTOS_RT-Thread/src/ipc.c **** 
 753              		.loc 1 139 69 view .LVU250
 142:Middlewares/Third_Party/RealThread_RTOS_RT-Thread/src/ipc.c **** 
 754              		.loc 1 142 5 view .LVU251
 755 0014 1438     		subs	r0, r0, #20
 756              	.LVL75:
ARM GAS  C:\Users\GKQ\AppData\Local\Temp\ccAKSbHb.s 			page 26


 142:Middlewares/Third_Party/RealThread_RTOS_RT-Thread/src/ipc.c **** 
 757              		.loc 1 142 5 is_stmt 0 view .LVU252
 758 0016 FFF7FEFF 		bl	rt_thread_resume
 759              	.LVL76:
 144:Middlewares/Third_Party/RealThread_RTOS_RT-Thread/src/ipc.c **** }
 760              		.loc 1 144 5 is_stmt 1 view .LVU253
 144:Middlewares/Third_Party/RealThread_RTOS_RT-Thread/src/ipc.c **** }
 761              		.loc 1 144 5 is_stmt 0 view .LVU254
 762              	.LBE72:
 763              	.LBE71:
 456:Middlewares/Third_Party/RealThread_RTOS_RT-Thread/src/ipc.c ****         need_schedule = RT_TRUE;
 764              		.loc 1 456 9 is_stmt 1 view .LVU255
 765              		.loc 1 456 23 is_stmt 0 view .LVU256
 766 001a 0124     		movs	r4, #1
 767              	.LVL77:
 768              	.L37:
 457:Middlewares/Third_Party/RealThread_RTOS_RT-Thread/src/ipc.c ****     }
 458:Middlewares/Third_Party/RealThread_RTOS_RT-Thread/src/ipc.c ****     else
 459:Middlewares/Third_Party/RealThread_RTOS_RT-Thread/src/ipc.c ****         sem->value ++; /* increase value */
 460:Middlewares/Third_Party/RealThread_RTOS_RT-Thread/src/ipc.c **** 
 461:Middlewares/Third_Party/RealThread_RTOS_RT-Thread/src/ipc.c ****     /* enable interrupt */
 462:Middlewares/Third_Party/RealThread_RTOS_RT-Thread/src/ipc.c ****     rt_hw_interrupt_enable(temp);
 769              		.loc 1 462 5 is_stmt 1 view .LVU257
 770 001c 2846     		mov	r0, r5
 771 001e FFF7FEFF 		bl	rt_hw_interrupt_enable
 772              	.LVL78:
 463:Middlewares/Third_Party/RealThread_RTOS_RT-Thread/src/ipc.c **** 
 464:Middlewares/Third_Party/RealThread_RTOS_RT-Thread/src/ipc.c ****     /* resume a thread, re-schedule */
 465:Middlewares/Third_Party/RealThread_RTOS_RT-Thread/src/ipc.c ****     if (need_schedule == RT_TRUE)
 773              		.loc 1 465 5 view .LVU258
 774              		.loc 1 465 8 is_stmt 0 view .LVU259
 775 0022 34B9     		cbnz	r4, .L40
 776              	.L38:
 466:Middlewares/Third_Party/RealThread_RTOS_RT-Thread/src/ipc.c ****         rt_schedule();
 467:Middlewares/Third_Party/RealThread_RTOS_RT-Thread/src/ipc.c **** 
 468:Middlewares/Third_Party/RealThread_RTOS_RT-Thread/src/ipc.c ****     return RT_EOK;
 777              		.loc 1 468 5 is_stmt 1 view .LVU260
 469:Middlewares/Third_Party/RealThread_RTOS_RT-Thread/src/ipc.c **** }
 778              		.loc 1 469 1 is_stmt 0 view .LVU261
 779 0024 0020     		movs	r0, #0
 780 0026 38BD     		pop	{r3, r4, r5, pc}
 781              	.LVL79:
 782              	.L36:
 459:Middlewares/Third_Party/RealThread_RTOS_RT-Thread/src/ipc.c **** 
 783              		.loc 1 459 9 is_stmt 1 view .LVU262
 459:Middlewares/Third_Party/RealThread_RTOS_RT-Thread/src/ipc.c **** 
 784              		.loc 1 459 12 is_stmt 0 view .LVU263
 785 0028 A38B     		ldrh	r3, [r4, #28]
 459:Middlewares/Third_Party/RealThread_RTOS_RT-Thread/src/ipc.c **** 
 786              		.loc 1 459 20 view .LVU264
 787 002a 0133     		adds	r3, r3, #1
 788 002c A383     		strh	r3, [r4, #28]	@ movhi
 442:Middlewares/Third_Party/RealThread_RTOS_RT-Thread/src/ipc.c **** 
 789              		.loc 1 442 19 view .LVU265
 790 002e 0024     		movs	r4, #0
 791              	.LVL80:
 442:Middlewares/Third_Party/RealThread_RTOS_RT-Thread/src/ipc.c **** 
ARM GAS  C:\Users\GKQ\AppData\Local\Temp\ccAKSbHb.s 			page 27


 792              		.loc 1 442 19 view .LVU266
 793 0030 F4E7     		b	.L37
 794              	.LVL81:
 795              	.L40:
 466:Middlewares/Third_Party/RealThread_RTOS_RT-Thread/src/ipc.c **** 
 796              		.loc 1 466 9 is_stmt 1 view .LVU267
 797 0032 FFF7FEFF 		bl	rt_schedule
 798              	.LVL82:
 799 0036 F5E7     		b	.L38
 800              		.cfi_endproc
 801              	.LFE25:
 803              		.section	.text.rt_sem_control,"ax",%progbits
 804              		.align	1
 805              		.global	rt_sem_control
 806              		.syntax unified
 807              		.thumb
 808              		.thumb_func
 809              		.fpu softvfp
 811              	rt_sem_control:
 812              	.LVL83:
 813              	.LFB26:
 470:Middlewares/Third_Party/RealThread_RTOS_RT-Thread/src/ipc.c **** RTM_EXPORT(rt_sem_release);
 471:Middlewares/Third_Party/RealThread_RTOS_RT-Thread/src/ipc.c **** 
 472:Middlewares/Third_Party/RealThread_RTOS_RT-Thread/src/ipc.c **** /**
 473:Middlewares/Third_Party/RealThread_RTOS_RT-Thread/src/ipc.c ****  * This function can get or set some extra attributions of a semaphore object.
 474:Middlewares/Third_Party/RealThread_RTOS_RT-Thread/src/ipc.c ****  *
 475:Middlewares/Third_Party/RealThread_RTOS_RT-Thread/src/ipc.c ****  * @param sem the semaphore object
 476:Middlewares/Third_Party/RealThread_RTOS_RT-Thread/src/ipc.c ****  * @param cmd the execution command
 477:Middlewares/Third_Party/RealThread_RTOS_RT-Thread/src/ipc.c ****  * @param arg the execution argument
 478:Middlewares/Third_Party/RealThread_RTOS_RT-Thread/src/ipc.c ****  *
 479:Middlewares/Third_Party/RealThread_RTOS_RT-Thread/src/ipc.c ****  * @return the error code
 480:Middlewares/Third_Party/RealThread_RTOS_RT-Thread/src/ipc.c ****  */
 481:Middlewares/Third_Party/RealThread_RTOS_RT-Thread/src/ipc.c **** rt_err_t rt_sem_control(rt_sem_t sem, int cmd, void *arg)
 482:Middlewares/Third_Party/RealThread_RTOS_RT-Thread/src/ipc.c **** {
 814              		.loc 1 482 1 view -0
 815              		.cfi_startproc
 816              		@ args = 0, pretend = 0, frame = 0
 817              		@ frame_needed = 0, uses_anonymous_args = 0
 483:Middlewares/Third_Party/RealThread_RTOS_RT-Thread/src/ipc.c ****     rt_ubase_t level;
 818              		.loc 1 483 5 view .LVU269
 484:Middlewares/Third_Party/RealThread_RTOS_RT-Thread/src/ipc.c **** 
 485:Middlewares/Third_Party/RealThread_RTOS_RT-Thread/src/ipc.c ****     /* parameter check */
 486:Middlewares/Third_Party/RealThread_RTOS_RT-Thread/src/ipc.c ****     RT_ASSERT(sem != RT_NULL);
 819              		.loc 1 486 30 view .LVU270
 487:Middlewares/Third_Party/RealThread_RTOS_RT-Thread/src/ipc.c ****     RT_ASSERT(rt_object_get_type(&sem->parent.parent) == RT_Object_Class_Semaphore);
 820              		.loc 1 487 84 view .LVU271
 488:Middlewares/Third_Party/RealThread_RTOS_RT-Thread/src/ipc.c **** 
 489:Middlewares/Third_Party/RealThread_RTOS_RT-Thread/src/ipc.c ****     if (cmd == RT_IPC_CMD_RESET)
 821              		.loc 1 489 5 view .LVU272
 822              		.loc 1 489 8 is_stmt 0 view .LVU273
 823 0000 0129     		cmp	r1, #1
 824 0002 23D1     		bne	.L45
 482:Middlewares/Third_Party/RealThread_RTOS_RT-Thread/src/ipc.c ****     rt_ubase_t level;
 825              		.loc 1 482 1 view .LVU274
 826 0004 2DE9F041 		push	{r4, r5, r6, r7, r8, lr}
 827              	.LCFI10:
 828              		.cfi_def_cfa_offset 24
ARM GAS  C:\Users\GKQ\AppData\Local\Temp\ccAKSbHb.s 			page 28


 829              		.cfi_offset 4, -24
 830              		.cfi_offset 5, -20
 831              		.cfi_offset 6, -16
 832              		.cfi_offset 7, -12
 833              		.cfi_offset 8, -8
 834              		.cfi_offset 14, -4
 835 0008 0446     		mov	r4, r0
 836 000a 9046     		mov	r8, r2
 837              	.LBB78:
 490:Middlewares/Third_Party/RealThread_RTOS_RT-Thread/src/ipc.c ****     {
 491:Middlewares/Third_Party/RealThread_RTOS_RT-Thread/src/ipc.c ****         rt_uint32_t value;
 838              		.loc 1 491 9 is_stmt 1 view .LVU275
 492:Middlewares/Third_Party/RealThread_RTOS_RT-Thread/src/ipc.c **** 
 493:Middlewares/Third_Party/RealThread_RTOS_RT-Thread/src/ipc.c ****         /* get value */
 494:Middlewares/Third_Party/RealThread_RTOS_RT-Thread/src/ipc.c ****         value = (rt_uint32_t)arg;
 839              		.loc 1 494 9 view .LVU276
 840              	.LVL84:
 495:Middlewares/Third_Party/RealThread_RTOS_RT-Thread/src/ipc.c ****         /* disable interrupt */
 496:Middlewares/Third_Party/RealThread_RTOS_RT-Thread/src/ipc.c ****         level = rt_hw_interrupt_disable();
 841              		.loc 1 496 9 view .LVU277
 842              		.loc 1 496 17 is_stmt 0 view .LVU278
 843 000c FFF7FEFF 		bl	rt_hw_interrupt_disable
 844              	.LVL85:
 845              		.loc 1 496 17 view .LVU279
 846 0010 0746     		mov	r7, r0
 847              	.LVL86:
 497:Middlewares/Third_Party/RealThread_RTOS_RT-Thread/src/ipc.c **** 
 498:Middlewares/Third_Party/RealThread_RTOS_RT-Thread/src/ipc.c ****         /* resume all waiting thread */
 499:Middlewares/Third_Party/RealThread_RTOS_RT-Thread/src/ipc.c ****         rt_ipc_list_resume_all(&sem->parent.suspend_thread);
 848              		.loc 1 499 9 is_stmt 1 view .LVU280
 849 0012 04F11406 		add	r6, r4, #20
 850              	.LVL87:
 851              	.LBB79:
 852              	.LBI79:
 155:Middlewares/Third_Party/RealThread_RTOS_RT-Thread/src/ipc.c **** {
 853              		.loc 1 155 20 view .LVU281
 854              	.LBB80:
 157:Middlewares/Third_Party/RealThread_RTOS_RT-Thread/src/ipc.c ****     register rt_ubase_t temp;
 855              		.loc 1 157 5 view .LVU282
 158:Middlewares/Third_Party/RealThread_RTOS_RT-Thread/src/ipc.c **** 
 856              		.loc 1 158 5 view .LVU283
 161:Middlewares/Third_Party/RealThread_RTOS_RT-Thread/src/ipc.c ****     {
 857              		.loc 1 161 5 view .LVU284
 161:Middlewares/Third_Party/RealThread_RTOS_RT-Thread/src/ipc.c ****     {
 858              		.loc 1 161 11 is_stmt 0 view .LVU285
 859 0016 0CE0     		b	.L43
 860              	.LVL88:
 861              	.L44:
 164:Middlewares/Third_Party/RealThread_RTOS_RT-Thread/src/ipc.c **** 
 862              		.loc 1 164 9 is_stmt 1 view .LVU286
 164:Middlewares/Third_Party/RealThread_RTOS_RT-Thread/src/ipc.c **** 
 863              		.loc 1 164 16 is_stmt 0 view .LVU287
 864 0018 FFF7FEFF 		bl	rt_hw_interrupt_disable
 865              	.LVL89:
 866 001c 0546     		mov	r5, r0
 867              	.LVL90:
 167:Middlewares/Third_Party/RealThread_RTOS_RT-Thread/src/ipc.c ****         /* set error code to RT_ERROR */
ARM GAS  C:\Users\GKQ\AppData\Local\Temp\ccAKSbHb.s 			page 29


 868              		.loc 1 167 9 is_stmt 1 view .LVU288
 167:Middlewares/Third_Party/RealThread_RTOS_RT-Thread/src/ipc.c ****         /* set error code to RT_ERROR */
 869              		.loc 1 167 18 is_stmt 0 view .LVU289
 870 001e 3068     		ldr	r0, [r6]
 871              	.LVL91:
 169:Middlewares/Third_Party/RealThread_RTOS_RT-Thread/src/ipc.c **** 
 872              		.loc 1 169 9 is_stmt 1 view .LVU290
 169:Middlewares/Third_Party/RealThread_RTOS_RT-Thread/src/ipc.c **** 
 873              		.loc 1 169 23 is_stmt 0 view .LVU291
 874 0020 4FF0FF33 		mov	r3, #-1
 875 0024 C361     		str	r3, [r0, #28]
 176:Middlewares/Third_Party/RealThread_RTOS_RT-Thread/src/ipc.c **** 
 876              		.loc 1 176 9 is_stmt 1 view .LVU292
 877 0026 1438     		subs	r0, r0, #20
 878              	.LVL92:
 176:Middlewares/Third_Party/RealThread_RTOS_RT-Thread/src/ipc.c **** 
 879              		.loc 1 176 9 is_stmt 0 view .LVU293
 880 0028 FFF7FEFF 		bl	rt_thread_resume
 881              	.LVL93:
 179:Middlewares/Third_Party/RealThread_RTOS_RT-Thread/src/ipc.c ****     }
 882              		.loc 1 179 9 is_stmt 1 view .LVU294
 883 002c 2846     		mov	r0, r5
 884 002e FFF7FEFF 		bl	rt_hw_interrupt_enable
 885              	.LVL94:
 886              	.L43:
 161:Middlewares/Third_Party/RealThread_RTOS_RT-Thread/src/ipc.c ****     {
 887              		.loc 1 161 11 view .LVU295
 888              	.LBB81:
 889              	.LBI81:
  98:Middlewares/Third_Party/RealThread_RTOS_RT-Thread/include/rtservice.h **** {
 890              		.loc 2 98 15 view .LVU296
 891              	.LBB82:
 892              		.loc 2 100 5 view .LVU297
 893              		.loc 2 100 13 is_stmt 0 view .LVU298
 894 0032 3368     		ldr	r3, [r6]
 895              	.LVL95:
 896              		.loc 2 100 13 view .LVU299
 897              	.LBE82:
 898              	.LBE81:
 161:Middlewares/Third_Party/RealThread_RTOS_RT-Thread/src/ipc.c ****     {
 899              		.loc 1 161 11 view .LVU300
 900 0034 9E42     		cmp	r6, r3
 901 0036 EFD1     		bne	.L44
 182:Middlewares/Third_Party/RealThread_RTOS_RT-Thread/src/ipc.c **** }
 902              		.loc 1 182 5 is_stmt 1 view .LVU301
 903              	.LVL96:
 182:Middlewares/Third_Party/RealThread_RTOS_RT-Thread/src/ipc.c **** }
 904              		.loc 1 182 5 is_stmt 0 view .LVU302
 905              	.LBE80:
 906              	.LBE79:
 500:Middlewares/Third_Party/RealThread_RTOS_RT-Thread/src/ipc.c **** 
 501:Middlewares/Third_Party/RealThread_RTOS_RT-Thread/src/ipc.c ****         /* set new value */
 502:Middlewares/Third_Party/RealThread_RTOS_RT-Thread/src/ipc.c ****         sem->value = (rt_uint16_t)value;
 907              		.loc 1 502 9 is_stmt 1 view .LVU303
 908              		.loc 1 502 20 is_stmt 0 view .LVU304
 909 0038 A4F81C80 		strh	r8, [r4, #28]	@ movhi
 503:Middlewares/Third_Party/RealThread_RTOS_RT-Thread/src/ipc.c **** 
ARM GAS  C:\Users\GKQ\AppData\Local\Temp\ccAKSbHb.s 			page 30


 504:Middlewares/Third_Party/RealThread_RTOS_RT-Thread/src/ipc.c ****         /* enable interrupt */
 505:Middlewares/Third_Party/RealThread_RTOS_RT-Thread/src/ipc.c ****         rt_hw_interrupt_enable(level);
 910              		.loc 1 505 9 is_stmt 1 view .LVU305
 911 003c 3846     		mov	r0, r7
 912 003e FFF7FEFF 		bl	rt_hw_interrupt_enable
 913              	.LVL97:
 506:Middlewares/Third_Party/RealThread_RTOS_RT-Thread/src/ipc.c **** 
 507:Middlewares/Third_Party/RealThread_RTOS_RT-Thread/src/ipc.c ****         rt_schedule();
 914              		.loc 1 507 9 view .LVU306
 915 0042 FFF7FEFF 		bl	rt_schedule
 916              	.LVL98:
 508:Middlewares/Third_Party/RealThread_RTOS_RT-Thread/src/ipc.c **** 
 509:Middlewares/Third_Party/RealThread_RTOS_RT-Thread/src/ipc.c ****         return RT_EOK;
 917              		.loc 1 509 9 view .LVU307
 918              		.loc 1 509 16 is_stmt 0 view .LVU308
 919 0046 0020     		movs	r0, #0
 920              	.LBE78:
 510:Middlewares/Third_Party/RealThread_RTOS_RT-Thread/src/ipc.c ****     }
 511:Middlewares/Third_Party/RealThread_RTOS_RT-Thread/src/ipc.c **** 
 512:Middlewares/Third_Party/RealThread_RTOS_RT-Thread/src/ipc.c ****     return -RT_ERROR;
 513:Middlewares/Third_Party/RealThread_RTOS_RT-Thread/src/ipc.c **** }
 921              		.loc 1 513 1 view .LVU309
 922 0048 BDE8F081 		pop	{r4, r5, r6, r7, r8, pc}
 923              	.LVL99:
 924              	.L45:
 925              	.LCFI11:
 926              		.cfi_def_cfa_offset 0
 927              		.cfi_restore 4
 928              		.cfi_restore 5
 929              		.cfi_restore 6
 930              		.cfi_restore 7
 931              		.cfi_restore 8
 932              		.cfi_restore 14
 512:Middlewares/Third_Party/RealThread_RTOS_RT-Thread/src/ipc.c **** }
 933              		.loc 1 512 12 view .LVU310
 934 004c 4FF0FF30 		mov	r0, #-1
 935              	.LVL100:
 936              		.loc 1 513 1 view .LVU311
 937 0050 7047     		bx	lr
 938              		.cfi_endproc
 939              	.LFE26:
 941              		.text
 942              	.Letext0:
 943              		.file 3 "Middlewares/Third_Party/RealThread_RTOS_RT-Thread/include/rtdef.h"
 944              		.file 4 "Middlewares/Third_Party/RealThread_RTOS_RT-Thread/components/finsh/finsh_api.h"
 945              		.file 5 "Middlewares/Third_Party/RealThread_RTOS_RT-Thread/include/rthw.h"
 946              		.file 6 "Middlewares/Third_Party/RealThread_RTOS_RT-Thread/include/rtthread.h"
ARM GAS  C:\Users\GKQ\AppData\Local\Temp\ccAKSbHb.s 			page 31

