ARM GAS  C:\Users\GKQ\AppData\Local\Temp\ccA2Fcx9.s 			page 1


   1              		.cpu cortex-m3
   2              		.eabi_attribute 20, 1
   3              		.eabi_attribute 21, 1
   4              		.eabi_attribute 23, 3
   5              		.eabi_attribute 24, 1
   6              		.eabi_attribute 25, 1
   7              		.eabi_attribute 26, 1
   8              		.eabi_attribute 30, 1
   9              		.eabi_attribute 34, 1
  10              		.eabi_attribute 18, 4
  11              		.file	"thread.c"
  12              		.text
  13              	.Ltext0:
  14              		.cfi_sections	.debug_frame
  15              		.section	.text.rt_thread_exit,"ax",%progbits
  16              		.align	1
  17              		.global	rt_thread_exit
  18              		.arch armv7-m
  19              		.syntax unified
  20              		.thumb
  21              		.thumb_func
  22              		.fpu softvfp
  24              	rt_thread_exit:
  25              	.LFB15:
  26              		.file 1 "Middlewares/Third_Party/RealThread_RTOS_RT-Thread/src/thread.c"
   1:Middlewares/Third_Party/RealThread_RTOS_RT-Thread/src/thread.c **** /*
   2:Middlewares/Third_Party/RealThread_RTOS_RT-Thread/src/thread.c ****  * Copyright (c) 2006-2018, RT-Thread Development Team
   3:Middlewares/Third_Party/RealThread_RTOS_RT-Thread/src/thread.c ****  *
   4:Middlewares/Third_Party/RealThread_RTOS_RT-Thread/src/thread.c ****  * SPDX-License-Identifier: Apache-2.0
   5:Middlewares/Third_Party/RealThread_RTOS_RT-Thread/src/thread.c ****  *
   6:Middlewares/Third_Party/RealThread_RTOS_RT-Thread/src/thread.c ****  * Change Logs:
   7:Middlewares/Third_Party/RealThread_RTOS_RT-Thread/src/thread.c ****  * Date           Author       Notes
   8:Middlewares/Third_Party/RealThread_RTOS_RT-Thread/src/thread.c ****  * 2006-03-28     Bernard      first version
   9:Middlewares/Third_Party/RealThread_RTOS_RT-Thread/src/thread.c ****  * 2006-04-29     Bernard      implement thread timer
  10:Middlewares/Third_Party/RealThread_RTOS_RT-Thread/src/thread.c ****  * 2006-04-30     Bernard      added THREAD_DEBUG
  11:Middlewares/Third_Party/RealThread_RTOS_RT-Thread/src/thread.c ****  * 2006-05-27     Bernard      fixed the rt_thread_yield bug
  12:Middlewares/Third_Party/RealThread_RTOS_RT-Thread/src/thread.c ****  * 2006-06-03     Bernard      fixed the thread timer init bug
  13:Middlewares/Third_Party/RealThread_RTOS_RT-Thread/src/thread.c ****  * 2006-08-10     Bernard      fixed the timer bug in thread_sleep
  14:Middlewares/Third_Party/RealThread_RTOS_RT-Thread/src/thread.c ****  * 2006-09-03     Bernard      changed rt_timer_delete to rt_timer_detach
  15:Middlewares/Third_Party/RealThread_RTOS_RT-Thread/src/thread.c ****  * 2006-09-03     Bernard      implement rt_thread_detach
  16:Middlewares/Third_Party/RealThread_RTOS_RT-Thread/src/thread.c ****  * 2008-02-16     Bernard      fixed the rt_thread_timeout bug
  17:Middlewares/Third_Party/RealThread_RTOS_RT-Thread/src/thread.c ****  * 2010-03-21     Bernard      change the errno of rt_thread_delay/sleep to
  18:Middlewares/Third_Party/RealThread_RTOS_RT-Thread/src/thread.c ****  *                             RT_EOK.
  19:Middlewares/Third_Party/RealThread_RTOS_RT-Thread/src/thread.c ****  * 2010-11-10     Bernard      add cleanup callback function in thread exit.
  20:Middlewares/Third_Party/RealThread_RTOS_RT-Thread/src/thread.c ****  * 2011-09-01     Bernard      fixed rt_thread_exit issue when the current
  21:Middlewares/Third_Party/RealThread_RTOS_RT-Thread/src/thread.c ****  *                             thread preempted, which reported by Jiaxing Lee.
  22:Middlewares/Third_Party/RealThread_RTOS_RT-Thread/src/thread.c ****  * 2011-09-08     Bernard      fixed the scheduling issue in rt_thread_startup.
  23:Middlewares/Third_Party/RealThread_RTOS_RT-Thread/src/thread.c ****  * 2012-12-29     Bernard      fixed compiling warning.
  24:Middlewares/Third_Party/RealThread_RTOS_RT-Thread/src/thread.c ****  * 2016-08-09     ArdaFu       add thread suspend and resume hook.
  25:Middlewares/Third_Party/RealThread_RTOS_RT-Thread/src/thread.c ****  * 2017-04-10     armink       fixed the rt_thread_delete and rt_thread_detach
  26:Middlewares/Third_Party/RealThread_RTOS_RT-Thread/src/thread.c ****                                bug when thread has not startup.
  27:Middlewares/Third_Party/RealThread_RTOS_RT-Thread/src/thread.c ****  */
  28:Middlewares/Third_Party/RealThread_RTOS_RT-Thread/src/thread.c **** 
  29:Middlewares/Third_Party/RealThread_RTOS_RT-Thread/src/thread.c **** #include <rtthread.h>
  30:Middlewares/Third_Party/RealThread_RTOS_RT-Thread/src/thread.c **** #include <rthw.h>
  31:Middlewares/Third_Party/RealThread_RTOS_RT-Thread/src/thread.c **** 
  32:Middlewares/Third_Party/RealThread_RTOS_RT-Thread/src/thread.c **** extern rt_list_t rt_thread_priority_table[RT_THREAD_PRIORITY_MAX];
ARM GAS  C:\Users\GKQ\AppData\Local\Temp\ccA2Fcx9.s 			page 2


  33:Middlewares/Third_Party/RealThread_RTOS_RT-Thread/src/thread.c **** extern struct rt_thread *rt_current_thread;
  34:Middlewares/Third_Party/RealThread_RTOS_RT-Thread/src/thread.c **** extern rt_list_t rt_thread_defunct;
  35:Middlewares/Third_Party/RealThread_RTOS_RT-Thread/src/thread.c **** 
  36:Middlewares/Third_Party/RealThread_RTOS_RT-Thread/src/thread.c **** #ifdef RT_USING_HOOK
  37:Middlewares/Third_Party/RealThread_RTOS_RT-Thread/src/thread.c **** 
  38:Middlewares/Third_Party/RealThread_RTOS_RT-Thread/src/thread.c **** static void (*rt_thread_suspend_hook)(rt_thread_t thread);
  39:Middlewares/Third_Party/RealThread_RTOS_RT-Thread/src/thread.c **** static void (*rt_thread_resume_hook) (rt_thread_t thread);
  40:Middlewares/Third_Party/RealThread_RTOS_RT-Thread/src/thread.c **** static void (*rt_thread_inited_hook) (rt_thread_t thread);
  41:Middlewares/Third_Party/RealThread_RTOS_RT-Thread/src/thread.c **** 
  42:Middlewares/Third_Party/RealThread_RTOS_RT-Thread/src/thread.c **** /**
  43:Middlewares/Third_Party/RealThread_RTOS_RT-Thread/src/thread.c ****  * @ingroup Hook
  44:Middlewares/Third_Party/RealThread_RTOS_RT-Thread/src/thread.c ****  * This function sets a hook function when the system suspend a thread.
  45:Middlewares/Third_Party/RealThread_RTOS_RT-Thread/src/thread.c ****  *
  46:Middlewares/Third_Party/RealThread_RTOS_RT-Thread/src/thread.c ****  * @param hook the specified hook function
  47:Middlewares/Third_Party/RealThread_RTOS_RT-Thread/src/thread.c ****  *
  48:Middlewares/Third_Party/RealThread_RTOS_RT-Thread/src/thread.c ****  * @note the hook function must be simple and never be blocked or suspend.
  49:Middlewares/Third_Party/RealThread_RTOS_RT-Thread/src/thread.c ****  */
  50:Middlewares/Third_Party/RealThread_RTOS_RT-Thread/src/thread.c **** void rt_thread_suspend_sethook(void (*hook)(rt_thread_t thread))
  51:Middlewares/Third_Party/RealThread_RTOS_RT-Thread/src/thread.c **** {
  52:Middlewares/Third_Party/RealThread_RTOS_RT-Thread/src/thread.c ****     rt_thread_suspend_hook = hook;
  53:Middlewares/Third_Party/RealThread_RTOS_RT-Thread/src/thread.c **** }
  54:Middlewares/Third_Party/RealThread_RTOS_RT-Thread/src/thread.c **** 
  55:Middlewares/Third_Party/RealThread_RTOS_RT-Thread/src/thread.c **** /**
  56:Middlewares/Third_Party/RealThread_RTOS_RT-Thread/src/thread.c ****  * @ingroup Hook
  57:Middlewares/Third_Party/RealThread_RTOS_RT-Thread/src/thread.c ****  * This function sets a hook function when the system resume a thread.
  58:Middlewares/Third_Party/RealThread_RTOS_RT-Thread/src/thread.c ****  *
  59:Middlewares/Third_Party/RealThread_RTOS_RT-Thread/src/thread.c ****  * @param hook the specified hook function
  60:Middlewares/Third_Party/RealThread_RTOS_RT-Thread/src/thread.c ****  *
  61:Middlewares/Third_Party/RealThread_RTOS_RT-Thread/src/thread.c ****  * @note the hook function must be simple and never be blocked or suspend.
  62:Middlewares/Third_Party/RealThread_RTOS_RT-Thread/src/thread.c ****  */
  63:Middlewares/Third_Party/RealThread_RTOS_RT-Thread/src/thread.c **** void rt_thread_resume_sethook(void (*hook)(rt_thread_t thread))
  64:Middlewares/Third_Party/RealThread_RTOS_RT-Thread/src/thread.c **** {
  65:Middlewares/Third_Party/RealThread_RTOS_RT-Thread/src/thread.c ****     rt_thread_resume_hook = hook;
  66:Middlewares/Third_Party/RealThread_RTOS_RT-Thread/src/thread.c **** }
  67:Middlewares/Third_Party/RealThread_RTOS_RT-Thread/src/thread.c **** 
  68:Middlewares/Third_Party/RealThread_RTOS_RT-Thread/src/thread.c **** /**
  69:Middlewares/Third_Party/RealThread_RTOS_RT-Thread/src/thread.c ****  * @ingroup Hook
  70:Middlewares/Third_Party/RealThread_RTOS_RT-Thread/src/thread.c ****  * This function sets a hook function when a thread is initialized.
  71:Middlewares/Third_Party/RealThread_RTOS_RT-Thread/src/thread.c ****  *
  72:Middlewares/Third_Party/RealThread_RTOS_RT-Thread/src/thread.c ****  * @param hook the specified hook function
  73:Middlewares/Third_Party/RealThread_RTOS_RT-Thread/src/thread.c ****  */
  74:Middlewares/Third_Party/RealThread_RTOS_RT-Thread/src/thread.c **** void rt_thread_inited_sethook(void (*hook)(rt_thread_t thread))
  75:Middlewares/Third_Party/RealThread_RTOS_RT-Thread/src/thread.c **** {
  76:Middlewares/Third_Party/RealThread_RTOS_RT-Thread/src/thread.c ****     rt_thread_inited_hook = hook;
  77:Middlewares/Third_Party/RealThread_RTOS_RT-Thread/src/thread.c **** }
  78:Middlewares/Third_Party/RealThread_RTOS_RT-Thread/src/thread.c **** 
  79:Middlewares/Third_Party/RealThread_RTOS_RT-Thread/src/thread.c **** #endif
  80:Middlewares/Third_Party/RealThread_RTOS_RT-Thread/src/thread.c **** 
  81:Middlewares/Third_Party/RealThread_RTOS_RT-Thread/src/thread.c **** void rt_thread_exit(void)
  82:Middlewares/Third_Party/RealThread_RTOS_RT-Thread/src/thread.c **** {
  27              		.loc 1 82 1 view -0
  28              		.cfi_startproc
  29              		@ args = 0, pretend = 0, frame = 0
  30              		@ frame_needed = 0, uses_anonymous_args = 0
  31 0000 38B5     		push	{r3, r4, r5, lr}
  32              	.LCFI0:
  33              		.cfi_def_cfa_offset 16
ARM GAS  C:\Users\GKQ\AppData\Local\Temp\ccA2Fcx9.s 			page 3


  34              		.cfi_offset 3, -16
  35              		.cfi_offset 4, -12
  36              		.cfi_offset 5, -8
  37              		.cfi_offset 14, -4
  83:Middlewares/Third_Party/RealThread_RTOS_RT-Thread/src/thread.c ****     struct rt_thread *thread;
  38              		.loc 1 83 5 view .LVU1
  84:Middlewares/Third_Party/RealThread_RTOS_RT-Thread/src/thread.c ****     register rt_base_t level;
  39              		.loc 1 84 5 view .LVU2
  85:Middlewares/Third_Party/RealThread_RTOS_RT-Thread/src/thread.c **** 
  86:Middlewares/Third_Party/RealThread_RTOS_RT-Thread/src/thread.c ****     /* get current thread */
  87:Middlewares/Third_Party/RealThread_RTOS_RT-Thread/src/thread.c ****     thread = rt_current_thread;
  40              		.loc 1 87 5 view .LVU3
  41              		.loc 1 87 12 is_stmt 0 view .LVU4
  42 0002 144B     		ldr	r3, .L6
  43 0004 1C68     		ldr	r4, [r3]
  44              	.LVL0:
  88:Middlewares/Third_Party/RealThread_RTOS_RT-Thread/src/thread.c **** 
  89:Middlewares/Third_Party/RealThread_RTOS_RT-Thread/src/thread.c ****     /* disable interrupt */
  90:Middlewares/Third_Party/RealThread_RTOS_RT-Thread/src/thread.c ****     level = rt_hw_interrupt_disable();
  45              		.loc 1 90 5 is_stmt 1 view .LVU5
  46              		.loc 1 90 13 is_stmt 0 view .LVU6
  47 0006 FFF7FEFF 		bl	rt_hw_interrupt_disable
  48              	.LVL1:
  49 000a 0546     		mov	r5, r0
  50              	.LVL2:
  91:Middlewares/Third_Party/RealThread_RTOS_RT-Thread/src/thread.c **** 
  92:Middlewares/Third_Party/RealThread_RTOS_RT-Thread/src/thread.c ****     /* remove from schedule */
  93:Middlewares/Third_Party/RealThread_RTOS_RT-Thread/src/thread.c ****     rt_schedule_remove_thread(thread);
  51              		.loc 1 93 5 is_stmt 1 view .LVU7
  52 000c 2046     		mov	r0, r4
  53              	.LVL3:
  54              		.loc 1 93 5 is_stmt 0 view .LVU8
  55 000e FFF7FEFF 		bl	rt_schedule_remove_thread
  56              	.LVL4:
  94:Middlewares/Third_Party/RealThread_RTOS_RT-Thread/src/thread.c ****     /* change stat */
  95:Middlewares/Third_Party/RealThread_RTOS_RT-Thread/src/thread.c ****     thread->stat = RT_THREAD_CLOSE;
  57              		.loc 1 95 5 is_stmt 1 view .LVU9
  58              		.loc 1 95 18 is_stmt 0 view .LVU10
  59 0012 0423     		movs	r3, #4
  60 0014 84F83430 		strb	r3, [r4, #52]
  96:Middlewares/Third_Party/RealThread_RTOS_RT-Thread/src/thread.c **** 
  97:Middlewares/Third_Party/RealThread_RTOS_RT-Thread/src/thread.c ****     /* remove it from timer list */
  98:Middlewares/Third_Party/RealThread_RTOS_RT-Thread/src/thread.c ****     rt_timer_detach(&thread->thread_timer);
  61              		.loc 1 98 5 is_stmt 1 view .LVU11
  62 0018 04F14400 		add	r0, r4, #68
  63 001c FFF7FEFF 		bl	rt_timer_detach
  64              	.LVL5:
  99:Middlewares/Third_Party/RealThread_RTOS_RT-Thread/src/thread.c **** 
 100:Middlewares/Third_Party/RealThread_RTOS_RT-Thread/src/thread.c ****     if ((rt_object_is_systemobject((rt_object_t)thread) == RT_TRUE) &&
  65              		.loc 1 100 5 view .LVU12
  66              		.loc 1 100 10 is_stmt 0 view .LVU13
  67 0020 2046     		mov	r0, r4
  68 0022 FFF7FEFF 		bl	rt_object_is_systemobject
  69              	.LVL6:
  70              		.loc 1 100 8 view .LVU14
  71 0026 0128     		cmp	r0, #1
  72 0028 0DD0     		beq	.L5
ARM GAS  C:\Users\GKQ\AppData\Local\Temp\ccA2Fcx9.s 			page 4


  73              	.L2:
 101:Middlewares/Third_Party/RealThread_RTOS_RT-Thread/src/thread.c ****         thread->cleanup == RT_NULL)
 102:Middlewares/Third_Party/RealThread_RTOS_RT-Thread/src/thread.c ****     {
 103:Middlewares/Third_Party/RealThread_RTOS_RT-Thread/src/thread.c ****         rt_object_detach((rt_object_t)thread);
 104:Middlewares/Third_Party/RealThread_RTOS_RT-Thread/src/thread.c ****     }
 105:Middlewares/Third_Party/RealThread_RTOS_RT-Thread/src/thread.c ****     else
 106:Middlewares/Third_Party/RealThread_RTOS_RT-Thread/src/thread.c ****     {
 107:Middlewares/Third_Party/RealThread_RTOS_RT-Thread/src/thread.c ****         /* insert to defunct thread list */
 108:Middlewares/Third_Party/RealThread_RTOS_RT-Thread/src/thread.c ****         rt_list_insert_after(&rt_thread_defunct, &(thread->tlist));
  74              		.loc 1 108 9 is_stmt 1 view .LVU15
  75 002a 04F11402 		add	r2, r4, #20
  76              	.LVL7:
  77              	.LBB18:
  78              	.LBI18:
  79              		.file 2 "Middlewares/Third_Party/RealThread_RTOS_RT-Thread/include/rtservice.h"
   1:Middlewares/Third_Party/RealThread_RTOS_RT-Thread/include/rtservice.h **** /*
   2:Middlewares/Third_Party/RealThread_RTOS_RT-Thread/include/rtservice.h ****  * Copyright (c) 2006-2018, RT-Thread Development Team
   3:Middlewares/Third_Party/RealThread_RTOS_RT-Thread/include/rtservice.h ****  *
   4:Middlewares/Third_Party/RealThread_RTOS_RT-Thread/include/rtservice.h ****  * SPDX-License-Identifier: Apache-2.0
   5:Middlewares/Third_Party/RealThread_RTOS_RT-Thread/include/rtservice.h ****  *
   6:Middlewares/Third_Party/RealThread_RTOS_RT-Thread/include/rtservice.h ****  * Change Logs:
   7:Middlewares/Third_Party/RealThread_RTOS_RT-Thread/include/rtservice.h ****  * Date           Author       Notes
   8:Middlewares/Third_Party/RealThread_RTOS_RT-Thread/include/rtservice.h ****  * 2006-03-16     Bernard      the first version
   9:Middlewares/Third_Party/RealThread_RTOS_RT-Thread/include/rtservice.h ****  * 2006-09-07     Bernard      move the kservice APIs to rtthread.h
  10:Middlewares/Third_Party/RealThread_RTOS_RT-Thread/include/rtservice.h ****  * 2007-06-27     Bernard      fix the rt_list_remove bug
  11:Middlewares/Third_Party/RealThread_RTOS_RT-Thread/include/rtservice.h ****  * 2012-03-22     Bernard      rename kservice.h to rtservice.h
  12:Middlewares/Third_Party/RealThread_RTOS_RT-Thread/include/rtservice.h ****  * 2017-11-15     JasonJia     Modify rt_slist_foreach to rt_slist_for_each_entry.
  13:Middlewares/Third_Party/RealThread_RTOS_RT-Thread/include/rtservice.h ****  *                             Make code cleanup.
  14:Middlewares/Third_Party/RealThread_RTOS_RT-Thread/include/rtservice.h ****  */
  15:Middlewares/Third_Party/RealThread_RTOS_RT-Thread/include/rtservice.h **** 
  16:Middlewares/Third_Party/RealThread_RTOS_RT-Thread/include/rtservice.h **** #ifndef __RT_SERVICE_H__
  17:Middlewares/Third_Party/RealThread_RTOS_RT-Thread/include/rtservice.h **** #define __RT_SERVICE_H__
  18:Middlewares/Third_Party/RealThread_RTOS_RT-Thread/include/rtservice.h **** 
  19:Middlewares/Third_Party/RealThread_RTOS_RT-Thread/include/rtservice.h **** #ifdef __cplusplus
  20:Middlewares/Third_Party/RealThread_RTOS_RT-Thread/include/rtservice.h **** extern "C" {
  21:Middlewares/Third_Party/RealThread_RTOS_RT-Thread/include/rtservice.h **** #endif
  22:Middlewares/Third_Party/RealThread_RTOS_RT-Thread/include/rtservice.h **** 
  23:Middlewares/Third_Party/RealThread_RTOS_RT-Thread/include/rtservice.h **** /**
  24:Middlewares/Third_Party/RealThread_RTOS_RT-Thread/include/rtservice.h ****  * @addtogroup KernelService
  25:Middlewares/Third_Party/RealThread_RTOS_RT-Thread/include/rtservice.h ****  */
  26:Middlewares/Third_Party/RealThread_RTOS_RT-Thread/include/rtservice.h **** 
  27:Middlewares/Third_Party/RealThread_RTOS_RT-Thread/include/rtservice.h **** /**@{*/
  28:Middlewares/Third_Party/RealThread_RTOS_RT-Thread/include/rtservice.h **** 
  29:Middlewares/Third_Party/RealThread_RTOS_RT-Thread/include/rtservice.h **** /**
  30:Middlewares/Third_Party/RealThread_RTOS_RT-Thread/include/rtservice.h ****  * rt_container_of - return the member address of ptr, if the type of ptr is the
  31:Middlewares/Third_Party/RealThread_RTOS_RT-Thread/include/rtservice.h ****  * struct type.
  32:Middlewares/Third_Party/RealThread_RTOS_RT-Thread/include/rtservice.h ****  */
  33:Middlewares/Third_Party/RealThread_RTOS_RT-Thread/include/rtservice.h **** #define rt_container_of(ptr, type, member) \
  34:Middlewares/Third_Party/RealThread_RTOS_RT-Thread/include/rtservice.h ****     ((type *)((char *)(ptr) - (unsigned long)(&((type *)0)->member)))
  35:Middlewares/Third_Party/RealThread_RTOS_RT-Thread/include/rtservice.h **** 
  36:Middlewares/Third_Party/RealThread_RTOS_RT-Thread/include/rtservice.h **** 
  37:Middlewares/Third_Party/RealThread_RTOS_RT-Thread/include/rtservice.h **** /**
  38:Middlewares/Third_Party/RealThread_RTOS_RT-Thread/include/rtservice.h ****  * @brief initialize a list object
  39:Middlewares/Third_Party/RealThread_RTOS_RT-Thread/include/rtservice.h ****  */
  40:Middlewares/Third_Party/RealThread_RTOS_RT-Thread/include/rtservice.h **** #define RT_LIST_OBJECT_INIT(object) { &(object), &(object) }
  41:Middlewares/Third_Party/RealThread_RTOS_RT-Thread/include/rtservice.h **** 
  42:Middlewares/Third_Party/RealThread_RTOS_RT-Thread/include/rtservice.h **** /**
ARM GAS  C:\Users\GKQ\AppData\Local\Temp\ccA2Fcx9.s 			page 5


  43:Middlewares/Third_Party/RealThread_RTOS_RT-Thread/include/rtservice.h ****  * @brief initialize a list
  44:Middlewares/Third_Party/RealThread_RTOS_RT-Thread/include/rtservice.h ****  *
  45:Middlewares/Third_Party/RealThread_RTOS_RT-Thread/include/rtservice.h ****  * @param l list to be initialized
  46:Middlewares/Third_Party/RealThread_RTOS_RT-Thread/include/rtservice.h ****  */
  47:Middlewares/Third_Party/RealThread_RTOS_RT-Thread/include/rtservice.h **** rt_inline void rt_list_init(rt_list_t *l)
  48:Middlewares/Third_Party/RealThread_RTOS_RT-Thread/include/rtservice.h **** {
  49:Middlewares/Third_Party/RealThread_RTOS_RT-Thread/include/rtservice.h ****     l->next = l->prev = l;
  50:Middlewares/Third_Party/RealThread_RTOS_RT-Thread/include/rtservice.h **** }
  51:Middlewares/Third_Party/RealThread_RTOS_RT-Thread/include/rtservice.h **** 
  52:Middlewares/Third_Party/RealThread_RTOS_RT-Thread/include/rtservice.h **** /**
  53:Middlewares/Third_Party/RealThread_RTOS_RT-Thread/include/rtservice.h ****  * @brief insert a node after a list
  54:Middlewares/Third_Party/RealThread_RTOS_RT-Thread/include/rtservice.h ****  *
  55:Middlewares/Third_Party/RealThread_RTOS_RT-Thread/include/rtservice.h ****  * @param l list to insert it
  56:Middlewares/Third_Party/RealThread_RTOS_RT-Thread/include/rtservice.h ****  * @param n new node to be inserted
  57:Middlewares/Third_Party/RealThread_RTOS_RT-Thread/include/rtservice.h ****  */
  58:Middlewares/Third_Party/RealThread_RTOS_RT-Thread/include/rtservice.h **** rt_inline void rt_list_insert_after(rt_list_t *l, rt_list_t *n)
  80              		.loc 2 58 16 view .LVU16
  81              	.LBB19:
  59:Middlewares/Third_Party/RealThread_RTOS_RT-Thread/include/rtservice.h **** {
  60:Middlewares/Third_Party/RealThread_RTOS_RT-Thread/include/rtservice.h ****     l->next->prev = n;
  82              		.loc 2 60 5 view .LVU17
  83              		.loc 2 60 6 is_stmt 0 view .LVU18
  84 002e 0A4B     		ldr	r3, .L6+4
  85 0030 1968     		ldr	r1, [r3]
  86              		.loc 2 60 19 view .LVU19
  87 0032 4A60     		str	r2, [r1, #4]
  61:Middlewares/Third_Party/RealThread_RTOS_RT-Thread/include/rtservice.h ****     n->next = l->next;
  88              		.loc 2 61 5 is_stmt 1 view .LVU20
  89              		.loc 2 61 13 is_stmt 0 view .LVU21
  90 0034 6161     		str	r1, [r4, #20]
  62:Middlewares/Third_Party/RealThread_RTOS_RT-Thread/include/rtservice.h **** 
  63:Middlewares/Third_Party/RealThread_RTOS_RT-Thread/include/rtservice.h ****     l->next = n;
  91              		.loc 2 63 5 is_stmt 1 view .LVU22
  92              		.loc 2 63 13 is_stmt 0 view .LVU23
  93 0036 1A60     		str	r2, [r3]
  64:Middlewares/Third_Party/RealThread_RTOS_RT-Thread/include/rtservice.h ****     n->prev = l;
  94              		.loc 2 64 5 is_stmt 1 view .LVU24
  95              		.loc 2 64 13 is_stmt 0 view .LVU25
  96 0038 A361     		str	r3, [r4, #24]
  97              	.LVL8:
  98              	.L3:
  99              		.loc 2 64 13 view .LVU26
 100              	.LBE19:
 101              	.LBE18:
 109:Middlewares/Third_Party/RealThread_RTOS_RT-Thread/src/thread.c ****     }
 110:Middlewares/Third_Party/RealThread_RTOS_RT-Thread/src/thread.c **** 
 111:Middlewares/Third_Party/RealThread_RTOS_RT-Thread/src/thread.c ****     /* enable interrupt */
 112:Middlewares/Third_Party/RealThread_RTOS_RT-Thread/src/thread.c ****     rt_hw_interrupt_enable(level);
 102              		.loc 1 112 5 is_stmt 1 view .LVU27
 103 003a 2846     		mov	r0, r5
 104 003c FFF7FEFF 		bl	rt_hw_interrupt_enable
 105              	.LVL9:
 113:Middlewares/Third_Party/RealThread_RTOS_RT-Thread/src/thread.c **** 
 114:Middlewares/Third_Party/RealThread_RTOS_RT-Thread/src/thread.c ****     /* switch to next task */
 115:Middlewares/Third_Party/RealThread_RTOS_RT-Thread/src/thread.c ****     rt_schedule();
 106              		.loc 1 115 5 view .LVU28
 107 0040 FFF7FEFF 		bl	rt_schedule
ARM GAS  C:\Users\GKQ\AppData\Local\Temp\ccA2Fcx9.s 			page 6


 108              	.LVL10:
 116:Middlewares/Third_Party/RealThread_RTOS_RT-Thread/src/thread.c **** }
 109              		.loc 1 116 1 is_stmt 0 view .LVU29
 110 0044 38BD     		pop	{r3, r4, r5, pc}
 111              	.LVL11:
 112              	.L5:
 101:Middlewares/Third_Party/RealThread_RTOS_RT-Thread/src/thread.c ****     {
 113              		.loc 1 101 15 discriminator 1 view .LVU30
 114 0046 236F     		ldr	r3, [r4, #112]
 100:Middlewares/Third_Party/RealThread_RTOS_RT-Thread/src/thread.c ****         thread->cleanup == RT_NULL)
 115              		.loc 1 100 69 discriminator 1 view .LVU31
 116 0048 002B     		cmp	r3, #0
 117 004a EED1     		bne	.L2
 103:Middlewares/Third_Party/RealThread_RTOS_RT-Thread/src/thread.c ****     }
 118              		.loc 1 103 9 is_stmt 1 view .LVU32
 119 004c 2046     		mov	r0, r4
 120 004e FFF7FEFF 		bl	rt_object_detach
 121              	.LVL12:
 122 0052 F2E7     		b	.L3
 123              	.L7:
 124              		.align	2
 125              	.L6:
 126 0054 00000000 		.word	rt_current_thread
 127 0058 00000000 		.word	rt_thread_defunct
 128              		.cfi_endproc
 129              	.LFE15:
 131              		.section	.text._rt_thread_init,"ax",%progbits
 132              		.align	1
 133              		.syntax unified
 134              		.thumb
 135              		.thumb_func
 136              		.fpu softvfp
 138              	_rt_thread_init:
 139              	.LVL13:
 140              	.LFB16:
 117:Middlewares/Third_Party/RealThread_RTOS_RT-Thread/src/thread.c **** 
 118:Middlewares/Third_Party/RealThread_RTOS_RT-Thread/src/thread.c **** static rt_err_t _rt_thread_init(struct rt_thread *thread,
 119:Middlewares/Third_Party/RealThread_RTOS_RT-Thread/src/thread.c ****                                 const char       *name,
 120:Middlewares/Third_Party/RealThread_RTOS_RT-Thread/src/thread.c ****                                 void (*entry)(void *parameter),
 121:Middlewares/Third_Party/RealThread_RTOS_RT-Thread/src/thread.c ****                                 void             *parameter,
 122:Middlewares/Third_Party/RealThread_RTOS_RT-Thread/src/thread.c ****                                 void             *stack_start,
 123:Middlewares/Third_Party/RealThread_RTOS_RT-Thread/src/thread.c ****                                 rt_uint32_t       stack_size,
 124:Middlewares/Third_Party/RealThread_RTOS_RT-Thread/src/thread.c ****                                 rt_uint8_t        priority,
 125:Middlewares/Third_Party/RealThread_RTOS_RT-Thread/src/thread.c ****                                 rt_uint32_t       tick)
 126:Middlewares/Third_Party/RealThread_RTOS_RT-Thread/src/thread.c **** {
 141              		.loc 1 126 1 view -0
 142              		.cfi_startproc
 143              		@ args = 16, pretend = 0, frame = 0
 144              		@ frame_needed = 0, uses_anonymous_args = 0
 145              		.loc 1 126 1 is_stmt 0 view .LVU34
 146 0000 F0B5     		push	{r4, r5, r6, r7, lr}
 147              	.LCFI1:
 148              		.cfi_def_cfa_offset 20
 149              		.cfi_offset 4, -20
 150              		.cfi_offset 5, -16
 151              		.cfi_offset 6, -12
 152              		.cfi_offset 7, -8
ARM GAS  C:\Users\GKQ\AppData\Local\Temp\ccA2Fcx9.s 			page 7


 153              		.cfi_offset 14, -4
 154 0002 83B0     		sub	sp, sp, #12
 155              	.LCFI2:
 156              		.cfi_def_cfa_offset 32
 157 0004 0446     		mov	r4, r0
 158 0006 1746     		mov	r7, r2
 159 0008 0898     		ldr	r0, [sp, #32]
 160              	.LVL14:
 161              		.loc 1 126 1 view .LVU35
 162 000a 099A     		ldr	r2, [sp, #36]
 163              	.LVL15:
 164              		.loc 1 126 1 view .LVU36
 165 000c 9DF82850 		ldrb	r5, [sp, #40]	@ zero_extendqisi2
 166 0010 0B9E     		ldr	r6, [sp, #44]
 127:Middlewares/Third_Party/RealThread_RTOS_RT-Thread/src/thread.c ****     /* init thread list */
 128:Middlewares/Third_Party/RealThread_RTOS_RT-Thread/src/thread.c ****     rt_list_init(&(thread->tlist));
 167              		.loc 1 128 5 is_stmt 1 view .LVU37
 168 0012 04F11401 		add	r1, r4, #20
 169              	.LVL16:
 170              	.LBB20:
 171              	.LBI20:
  47:Middlewares/Third_Party/RealThread_RTOS_RT-Thread/include/rtservice.h **** {
 172              		.loc 2 47 16 view .LVU38
 173              	.LBB21:
  49:Middlewares/Third_Party/RealThread_RTOS_RT-Thread/include/rtservice.h **** }
 174              		.loc 2 49 5 view .LVU39
  49:Middlewares/Third_Party/RealThread_RTOS_RT-Thread/include/rtservice.h **** }
 175              		.loc 2 49 23 is_stmt 0 view .LVU40
 176 0016 A161     		str	r1, [r4, #24]
  49:Middlewares/Third_Party/RealThread_RTOS_RT-Thread/include/rtservice.h **** }
 177              		.loc 2 49 13 view .LVU41
 178 0018 6161     		str	r1, [r4, #20]
 179              	.LVL17:
  49:Middlewares/Third_Party/RealThread_RTOS_RT-Thread/include/rtservice.h **** }
 180              		.loc 2 49 13 view .LVU42
 181              	.LBE21:
 182              	.LBE20:
 129:Middlewares/Third_Party/RealThread_RTOS_RT-Thread/src/thread.c **** 
 130:Middlewares/Third_Party/RealThread_RTOS_RT-Thread/src/thread.c ****     thread->entry = (void *)entry;
 183              		.loc 1 130 5 is_stmt 1 view .LVU43
 184              		.loc 1 130 19 is_stmt 0 view .LVU44
 185 001a 2762     		str	r7, [r4, #32]
 131:Middlewares/Third_Party/RealThread_RTOS_RT-Thread/src/thread.c ****     thread->parameter = parameter;
 186              		.loc 1 131 5 is_stmt 1 view .LVU45
 187              		.loc 1 131 23 is_stmt 0 view .LVU46
 188 001c 6362     		str	r3, [r4, #36]
 132:Middlewares/Third_Party/RealThread_RTOS_RT-Thread/src/thread.c **** 
 133:Middlewares/Third_Party/RealThread_RTOS_RT-Thread/src/thread.c ****     /* stack init */
 134:Middlewares/Third_Party/RealThread_RTOS_RT-Thread/src/thread.c ****     thread->stack_addr = stack_start;
 189              		.loc 1 134 5 is_stmt 1 view .LVU47
 190              		.loc 1 134 24 is_stmt 0 view .LVU48
 191 001e A062     		str	r0, [r4, #40]
 135:Middlewares/Third_Party/RealThread_RTOS_RT-Thread/src/thread.c ****     thread->stack_size = stack_size;
 192              		.loc 1 135 5 is_stmt 1 view .LVU49
 193              		.loc 1 135 24 is_stmt 0 view .LVU50
 194 0020 E262     		str	r2, [r4, #44]
 136:Middlewares/Third_Party/RealThread_RTOS_RT-Thread/src/thread.c **** 
ARM GAS  C:\Users\GKQ\AppData\Local\Temp\ccA2Fcx9.s 			page 8


 137:Middlewares/Third_Party/RealThread_RTOS_RT-Thread/src/thread.c ****     /* init thread stack */
 138:Middlewares/Third_Party/RealThread_RTOS_RT-Thread/src/thread.c ****     rt_memset(thread->stack_addr, '#', thread->stack_size);
 195              		.loc 1 138 5 is_stmt 1 view .LVU51
 196 0022 2321     		movs	r1, #35
 197 0024 FFF7FEFF 		bl	rt_memset
 198              	.LVL18:
 139:Middlewares/Third_Party/RealThread_RTOS_RT-Thread/src/thread.c **** #ifdef ARCH_CPU_STACK_GROWS_UPWARD
 140:Middlewares/Third_Party/RealThread_RTOS_RT-Thread/src/thread.c ****     thread->sp = (void *)rt_hw_stack_init(thread->entry, thread->parameter,
 141:Middlewares/Third_Party/RealThread_RTOS_RT-Thread/src/thread.c ****                                           (void *)((char *)thread->stack_addr),
 142:Middlewares/Third_Party/RealThread_RTOS_RT-Thread/src/thread.c ****                                           (void *)rt_thread_exit);
 143:Middlewares/Third_Party/RealThread_RTOS_RT-Thread/src/thread.c **** #else
 144:Middlewares/Third_Party/RealThread_RTOS_RT-Thread/src/thread.c ****     thread->sp = (void *)rt_hw_stack_init(thread->entry, thread->parameter,
 199              		.loc 1 144 5 view .LVU52
 145:Middlewares/Third_Party/RealThread_RTOS_RT-Thread/src/thread.c ****                                           (void *)((char *)thread->stack_addr + thread->stack_size 
 200              		.loc 1 145 66 is_stmt 0 view .LVU53
 201 0028 A16A     		ldr	r1, [r4, #40]
 202              		.loc 1 145 87 view .LVU54
 203 002a E36A     		ldr	r3, [r4, #44]
 204              		.loc 1 145 100 view .LVU55
 205 002c 1A1F     		subs	r2, r3, #4
 144:Middlewares/Third_Party/RealThread_RTOS_RT-Thread/src/thread.c ****                                           (void *)((char *)thread->stack_addr + thread->stack_size 
 206              		.loc 1 144 26 view .LVU56
 207 002e 104B     		ldr	r3, .L10
 208 0030 0A44     		add	r2, r2, r1
 209 0032 616A     		ldr	r1, [r4, #36]
 210 0034 206A     		ldr	r0, [r4, #32]
 211 0036 FFF7FEFF 		bl	rt_hw_stack_init
 212              	.LVL19:
 144:Middlewares/Third_Party/RealThread_RTOS_RT-Thread/src/thread.c ****                                           (void *)((char *)thread->stack_addr + thread->stack_size 
 213              		.loc 1 144 16 view .LVU57
 214 003a E061     		str	r0, [r4, #28]
 146:Middlewares/Third_Party/RealThread_RTOS_RT-Thread/src/thread.c ****                                           (void *)rt_thread_exit);
 147:Middlewares/Third_Party/RealThread_RTOS_RT-Thread/src/thread.c **** #endif
 148:Middlewares/Third_Party/RealThread_RTOS_RT-Thread/src/thread.c **** 
 149:Middlewares/Third_Party/RealThread_RTOS_RT-Thread/src/thread.c ****     /* priority init */
 150:Middlewares/Third_Party/RealThread_RTOS_RT-Thread/src/thread.c ****     RT_ASSERT(priority < RT_THREAD_PRIORITY_MAX);
 215              		.loc 1 150 49 is_stmt 1 view .LVU58
 151:Middlewares/Third_Party/RealThread_RTOS_RT-Thread/src/thread.c ****     thread->init_priority    = priority;
 216              		.loc 1 151 5 view .LVU59
 217              		.loc 1 151 30 is_stmt 0 view .LVU60
 218 003c 84F83650 		strb	r5, [r4, #54]
 152:Middlewares/Third_Party/RealThread_RTOS_RT-Thread/src/thread.c ****     thread->current_priority = priority;
 219              		.loc 1 152 5 is_stmt 1 view .LVU61
 220              		.loc 1 152 30 is_stmt 0 view .LVU62
 221 0040 84F83550 		strb	r5, [r4, #53]
 153:Middlewares/Third_Party/RealThread_RTOS_RT-Thread/src/thread.c **** 
 154:Middlewares/Third_Party/RealThread_RTOS_RT-Thread/src/thread.c ****     thread->number_mask = 0;
 222              		.loc 1 154 5 is_stmt 1 view .LVU63
 223              		.loc 1 154 25 is_stmt 0 view .LVU64
 224 0044 0025     		movs	r5, #0
 225 0046 A563     		str	r5, [r4, #56]
 155:Middlewares/Third_Party/RealThread_RTOS_RT-Thread/src/thread.c **** #if RT_THREAD_PRIORITY_MAX > 32
 156:Middlewares/Third_Party/RealThread_RTOS_RT-Thread/src/thread.c ****     thread->number = 0;
 157:Middlewares/Third_Party/RealThread_RTOS_RT-Thread/src/thread.c ****     thread->high_mask = 0;
 158:Middlewares/Third_Party/RealThread_RTOS_RT-Thread/src/thread.c **** #endif
 159:Middlewares/Third_Party/RealThread_RTOS_RT-Thread/src/thread.c **** 
 160:Middlewares/Third_Party/RealThread_RTOS_RT-Thread/src/thread.c ****     /* tick init */
ARM GAS  C:\Users\GKQ\AppData\Local\Temp\ccA2Fcx9.s 			page 9


 161:Middlewares/Third_Party/RealThread_RTOS_RT-Thread/src/thread.c ****     thread->init_tick      = tick;
 226              		.loc 1 161 5 is_stmt 1 view .LVU65
 227              		.loc 1 161 28 is_stmt 0 view .LVU66
 228 0048 E663     		str	r6, [r4, #60]
 162:Middlewares/Third_Party/RealThread_RTOS_RT-Thread/src/thread.c ****     thread->remaining_tick = tick;
 229              		.loc 1 162 5 is_stmt 1 view .LVU67
 230              		.loc 1 162 28 is_stmt 0 view .LVU68
 231 004a 2664     		str	r6, [r4, #64]
 163:Middlewares/Third_Party/RealThread_RTOS_RT-Thread/src/thread.c **** 
 164:Middlewares/Third_Party/RealThread_RTOS_RT-Thread/src/thread.c ****     /* error and flags */
 165:Middlewares/Third_Party/RealThread_RTOS_RT-Thread/src/thread.c ****     thread->error = RT_EOK;
 232              		.loc 1 165 5 is_stmt 1 view .LVU69
 233              		.loc 1 165 19 is_stmt 0 view .LVU70
 234 004c 2563     		str	r5, [r4, #48]
 166:Middlewares/Third_Party/RealThread_RTOS_RT-Thread/src/thread.c ****     thread->stat  = RT_THREAD_INIT;
 235              		.loc 1 166 5 is_stmt 1 view .LVU71
 236              		.loc 1 166 19 is_stmt 0 view .LVU72
 237 004e 84F83450 		strb	r5, [r4, #52]
 167:Middlewares/Third_Party/RealThread_RTOS_RT-Thread/src/thread.c **** 
 168:Middlewares/Third_Party/RealThread_RTOS_RT-Thread/src/thread.c ****     /* initialize cleanup function and user data */
 169:Middlewares/Third_Party/RealThread_RTOS_RT-Thread/src/thread.c ****     thread->cleanup   = 0;
 238              		.loc 1 169 5 is_stmt 1 view .LVU73
 239              		.loc 1 169 23 is_stmt 0 view .LVU74
 240 0052 2567     		str	r5, [r4, #112]
 170:Middlewares/Third_Party/RealThread_RTOS_RT-Thread/src/thread.c ****     thread->user_data = 0;
 241              		.loc 1 170 5 is_stmt 1 view .LVU75
 242              		.loc 1 170 23 is_stmt 0 view .LVU76
 243 0054 6567     		str	r5, [r4, #116]
 171:Middlewares/Third_Party/RealThread_RTOS_RT-Thread/src/thread.c **** 
 172:Middlewares/Third_Party/RealThread_RTOS_RT-Thread/src/thread.c ****     /* init thread timer */
 173:Middlewares/Third_Party/RealThread_RTOS_RT-Thread/src/thread.c ****     rt_timer_init(&(thread->thread_timer),
 244              		.loc 1 173 5 is_stmt 1 view .LVU77
 245 0056 0195     		str	r5, [sp, #4]
 246 0058 0095     		str	r5, [sp]
 247 005a 2346     		mov	r3, r4
 248 005c 054A     		ldr	r2, .L10+4
 249 005e 2146     		mov	r1, r4
 250 0060 04F14400 		add	r0, r4, #68
 251 0064 FFF7FEFF 		bl	rt_timer_init
 252              	.LVL20:
 174:Middlewares/Third_Party/RealThread_RTOS_RT-Thread/src/thread.c ****                   thread->name,
 175:Middlewares/Third_Party/RealThread_RTOS_RT-Thread/src/thread.c ****                   rt_thread_timeout,
 176:Middlewares/Third_Party/RealThread_RTOS_RT-Thread/src/thread.c ****                   thread,
 177:Middlewares/Third_Party/RealThread_RTOS_RT-Thread/src/thread.c ****                   0,
 178:Middlewares/Third_Party/RealThread_RTOS_RT-Thread/src/thread.c ****                   RT_TIMER_FLAG_ONE_SHOT);
 179:Middlewares/Third_Party/RealThread_RTOS_RT-Thread/src/thread.c **** 
 180:Middlewares/Third_Party/RealThread_RTOS_RT-Thread/src/thread.c ****     /* initialize signal */
 181:Middlewares/Third_Party/RealThread_RTOS_RT-Thread/src/thread.c **** #ifdef RT_USING_SIGNALS
 182:Middlewares/Third_Party/RealThread_RTOS_RT-Thread/src/thread.c ****     thread->sig_mask    = 0x00;
 183:Middlewares/Third_Party/RealThread_RTOS_RT-Thread/src/thread.c ****     thread->sig_pending = 0x00;
 184:Middlewares/Third_Party/RealThread_RTOS_RT-Thread/src/thread.c **** 
 185:Middlewares/Third_Party/RealThread_RTOS_RT-Thread/src/thread.c ****     thread->sig_ret     = RT_NULL;
 186:Middlewares/Third_Party/RealThread_RTOS_RT-Thread/src/thread.c ****     thread->sig_vectors = RT_NULL;
 187:Middlewares/Third_Party/RealThread_RTOS_RT-Thread/src/thread.c ****     thread->si_list     = RT_NULL;
 188:Middlewares/Third_Party/RealThread_RTOS_RT-Thread/src/thread.c **** #endif
 189:Middlewares/Third_Party/RealThread_RTOS_RT-Thread/src/thread.c **** 
 190:Middlewares/Third_Party/RealThread_RTOS_RT-Thread/src/thread.c **** #ifdef RT_USING_LWP
ARM GAS  C:\Users\GKQ\AppData\Local\Temp\ccA2Fcx9.s 			page 10


 191:Middlewares/Third_Party/RealThread_RTOS_RT-Thread/src/thread.c ****     thread->lwp = RT_NULL;
 192:Middlewares/Third_Party/RealThread_RTOS_RT-Thread/src/thread.c **** #endif
 193:Middlewares/Third_Party/RealThread_RTOS_RT-Thread/src/thread.c **** 
 194:Middlewares/Third_Party/RealThread_RTOS_RT-Thread/src/thread.c ****     RT_OBJECT_HOOK_CALL(rt_thread_inited_hook, (thread));
 253              		.loc 1 194 57 view .LVU78
 195:Middlewares/Third_Party/RealThread_RTOS_RT-Thread/src/thread.c **** 
 196:Middlewares/Third_Party/RealThread_RTOS_RT-Thread/src/thread.c ****     return RT_EOK;
 254              		.loc 1 196 5 view .LVU79
 197:Middlewares/Third_Party/RealThread_RTOS_RT-Thread/src/thread.c **** }
 255              		.loc 1 197 1 is_stmt 0 view .LVU80
 256 0068 2846     		mov	r0, r5
 257 006a 03B0     		add	sp, sp, #12
 258              	.LCFI3:
 259              		.cfi_def_cfa_offset 20
 260              		@ sp needed
 261 006c F0BD     		pop	{r4, r5, r6, r7, pc}
 262              	.LVL21:
 263              	.L11:
 264              		.loc 1 197 1 view .LVU81
 265 006e 00BF     		.align	2
 266              	.L10:
 267 0070 00000000 		.word	rt_thread_exit
 268 0074 00000000 		.word	rt_thread_timeout
 269              		.cfi_endproc
 270              	.LFE16:
 272              		.section	.text.rt_thread_timeout,"ax",%progbits
 273              		.align	1
 274              		.global	rt_thread_timeout
 275              		.syntax unified
 276              		.thumb
 277              		.thumb_func
 278              		.fpu softvfp
 280              	rt_thread_timeout:
 281              	.LVL22:
 282              	.LFB30:
 198:Middlewares/Third_Party/RealThread_RTOS_RT-Thread/src/thread.c **** 
 199:Middlewares/Third_Party/RealThread_RTOS_RT-Thread/src/thread.c **** /**
 200:Middlewares/Third_Party/RealThread_RTOS_RT-Thread/src/thread.c ****  * @addtogroup Thread
 201:Middlewares/Third_Party/RealThread_RTOS_RT-Thread/src/thread.c ****  */
 202:Middlewares/Third_Party/RealThread_RTOS_RT-Thread/src/thread.c **** 
 203:Middlewares/Third_Party/RealThread_RTOS_RT-Thread/src/thread.c **** /**@{*/
 204:Middlewares/Third_Party/RealThread_RTOS_RT-Thread/src/thread.c **** 
 205:Middlewares/Third_Party/RealThread_RTOS_RT-Thread/src/thread.c **** /**
 206:Middlewares/Third_Party/RealThread_RTOS_RT-Thread/src/thread.c ****  * This function will initialize a thread, normally it's used to initialize a
 207:Middlewares/Third_Party/RealThread_RTOS_RT-Thread/src/thread.c ****  * static thread object.
 208:Middlewares/Third_Party/RealThread_RTOS_RT-Thread/src/thread.c ****  *
 209:Middlewares/Third_Party/RealThread_RTOS_RT-Thread/src/thread.c ****  * @param thread the static thread object
 210:Middlewares/Third_Party/RealThread_RTOS_RT-Thread/src/thread.c ****  * @param name the name of thread, which shall be unique
 211:Middlewares/Third_Party/RealThread_RTOS_RT-Thread/src/thread.c ****  * @param entry the entry function of thread
 212:Middlewares/Third_Party/RealThread_RTOS_RT-Thread/src/thread.c ****  * @param parameter the parameter of thread enter function
 213:Middlewares/Third_Party/RealThread_RTOS_RT-Thread/src/thread.c ****  * @param stack_start the start address of thread stack
 214:Middlewares/Third_Party/RealThread_RTOS_RT-Thread/src/thread.c ****  * @param stack_size the size of thread stack
 215:Middlewares/Third_Party/RealThread_RTOS_RT-Thread/src/thread.c ****  * @param priority the priority of thread
 216:Middlewares/Third_Party/RealThread_RTOS_RT-Thread/src/thread.c ****  * @param tick the time slice if there are same priority thread
 217:Middlewares/Third_Party/RealThread_RTOS_RT-Thread/src/thread.c ****  *
 218:Middlewares/Third_Party/RealThread_RTOS_RT-Thread/src/thread.c ****  * @return the operation status, RT_EOK on OK, -RT_ERROR on error
 219:Middlewares/Third_Party/RealThread_RTOS_RT-Thread/src/thread.c ****  */
ARM GAS  C:\Users\GKQ\AppData\Local\Temp\ccA2Fcx9.s 			page 11


 220:Middlewares/Third_Party/RealThread_RTOS_RT-Thread/src/thread.c **** rt_err_t rt_thread_init(struct rt_thread *thread,
 221:Middlewares/Third_Party/RealThread_RTOS_RT-Thread/src/thread.c ****                         const char       *name,
 222:Middlewares/Third_Party/RealThread_RTOS_RT-Thread/src/thread.c ****                         void (*entry)(void *parameter),
 223:Middlewares/Third_Party/RealThread_RTOS_RT-Thread/src/thread.c ****                         void             *parameter,
 224:Middlewares/Third_Party/RealThread_RTOS_RT-Thread/src/thread.c ****                         void             *stack_start,
 225:Middlewares/Third_Party/RealThread_RTOS_RT-Thread/src/thread.c ****                         rt_uint32_t       stack_size,
 226:Middlewares/Third_Party/RealThread_RTOS_RT-Thread/src/thread.c ****                         rt_uint8_t        priority,
 227:Middlewares/Third_Party/RealThread_RTOS_RT-Thread/src/thread.c ****                         rt_uint32_t       tick)
 228:Middlewares/Third_Party/RealThread_RTOS_RT-Thread/src/thread.c **** {
 229:Middlewares/Third_Party/RealThread_RTOS_RT-Thread/src/thread.c ****     /* thread check */
 230:Middlewares/Third_Party/RealThread_RTOS_RT-Thread/src/thread.c ****     RT_ASSERT(thread != RT_NULL);
 231:Middlewares/Third_Party/RealThread_RTOS_RT-Thread/src/thread.c ****     RT_ASSERT(stack_start != RT_NULL);
 232:Middlewares/Third_Party/RealThread_RTOS_RT-Thread/src/thread.c **** 
 233:Middlewares/Third_Party/RealThread_RTOS_RT-Thread/src/thread.c ****     /* init thread object */
 234:Middlewares/Third_Party/RealThread_RTOS_RT-Thread/src/thread.c ****     rt_object_init((rt_object_t)thread, RT_Object_Class_Thread, name);
 235:Middlewares/Third_Party/RealThread_RTOS_RT-Thread/src/thread.c **** 
 236:Middlewares/Third_Party/RealThread_RTOS_RT-Thread/src/thread.c ****     return _rt_thread_init(thread,
 237:Middlewares/Third_Party/RealThread_RTOS_RT-Thread/src/thread.c ****                            name,
 238:Middlewares/Third_Party/RealThread_RTOS_RT-Thread/src/thread.c ****                            entry,
 239:Middlewares/Third_Party/RealThread_RTOS_RT-Thread/src/thread.c ****                            parameter,
 240:Middlewares/Third_Party/RealThread_RTOS_RT-Thread/src/thread.c ****                            stack_start,
 241:Middlewares/Third_Party/RealThread_RTOS_RT-Thread/src/thread.c ****                            stack_size,
 242:Middlewares/Third_Party/RealThread_RTOS_RT-Thread/src/thread.c ****                            priority,
 243:Middlewares/Third_Party/RealThread_RTOS_RT-Thread/src/thread.c ****                            tick);
 244:Middlewares/Third_Party/RealThread_RTOS_RT-Thread/src/thread.c **** }
 245:Middlewares/Third_Party/RealThread_RTOS_RT-Thread/src/thread.c **** RTM_EXPORT(rt_thread_init);
 246:Middlewares/Third_Party/RealThread_RTOS_RT-Thread/src/thread.c **** 
 247:Middlewares/Third_Party/RealThread_RTOS_RT-Thread/src/thread.c **** /**
 248:Middlewares/Third_Party/RealThread_RTOS_RT-Thread/src/thread.c ****  * This function will return self thread object
 249:Middlewares/Third_Party/RealThread_RTOS_RT-Thread/src/thread.c ****  *
 250:Middlewares/Third_Party/RealThread_RTOS_RT-Thread/src/thread.c ****  * @return the self thread object
 251:Middlewares/Third_Party/RealThread_RTOS_RT-Thread/src/thread.c ****  */
 252:Middlewares/Third_Party/RealThread_RTOS_RT-Thread/src/thread.c **** rt_thread_t rt_thread_self(void)
 253:Middlewares/Third_Party/RealThread_RTOS_RT-Thread/src/thread.c **** {
 254:Middlewares/Third_Party/RealThread_RTOS_RT-Thread/src/thread.c ****     return rt_current_thread;
 255:Middlewares/Third_Party/RealThread_RTOS_RT-Thread/src/thread.c **** }
 256:Middlewares/Third_Party/RealThread_RTOS_RT-Thread/src/thread.c **** RTM_EXPORT(rt_thread_self);
 257:Middlewares/Third_Party/RealThread_RTOS_RT-Thread/src/thread.c **** 
 258:Middlewares/Third_Party/RealThread_RTOS_RT-Thread/src/thread.c **** /**
 259:Middlewares/Third_Party/RealThread_RTOS_RT-Thread/src/thread.c ****  * This function will start a thread and put it to system ready queue
 260:Middlewares/Third_Party/RealThread_RTOS_RT-Thread/src/thread.c ****  *
 261:Middlewares/Third_Party/RealThread_RTOS_RT-Thread/src/thread.c ****  * @param thread the thread to be started
 262:Middlewares/Third_Party/RealThread_RTOS_RT-Thread/src/thread.c ****  *
 263:Middlewares/Third_Party/RealThread_RTOS_RT-Thread/src/thread.c ****  * @return the operation status, RT_EOK on OK, -RT_ERROR on error
 264:Middlewares/Third_Party/RealThread_RTOS_RT-Thread/src/thread.c ****  */
 265:Middlewares/Third_Party/RealThread_RTOS_RT-Thread/src/thread.c **** rt_err_t rt_thread_startup(rt_thread_t thread)
 266:Middlewares/Third_Party/RealThread_RTOS_RT-Thread/src/thread.c **** {
 267:Middlewares/Third_Party/RealThread_RTOS_RT-Thread/src/thread.c ****     /* thread check */
 268:Middlewares/Third_Party/RealThread_RTOS_RT-Thread/src/thread.c ****     RT_ASSERT(thread != RT_NULL);
 269:Middlewares/Third_Party/RealThread_RTOS_RT-Thread/src/thread.c ****     RT_ASSERT((thread->stat & RT_THREAD_STAT_MASK) == RT_THREAD_INIT);
 270:Middlewares/Third_Party/RealThread_RTOS_RT-Thread/src/thread.c ****     RT_ASSERT(rt_object_get_type((rt_object_t)thread) == RT_Object_Class_Thread);
 271:Middlewares/Third_Party/RealThread_RTOS_RT-Thread/src/thread.c **** 
 272:Middlewares/Third_Party/RealThread_RTOS_RT-Thread/src/thread.c ****     /* set current priority to init priority */
 273:Middlewares/Third_Party/RealThread_RTOS_RT-Thread/src/thread.c ****     thread->current_priority = thread->init_priority;
 274:Middlewares/Third_Party/RealThread_RTOS_RT-Thread/src/thread.c **** 
 275:Middlewares/Third_Party/RealThread_RTOS_RT-Thread/src/thread.c ****     /* calculate priority attribute */
 276:Middlewares/Third_Party/RealThread_RTOS_RT-Thread/src/thread.c **** #if RT_THREAD_PRIORITY_MAX > 32
ARM GAS  C:\Users\GKQ\AppData\Local\Temp\ccA2Fcx9.s 			page 12


 277:Middlewares/Third_Party/RealThread_RTOS_RT-Thread/src/thread.c ****     thread->number      = thread->current_priority >> 3;            /* 5bit */
 278:Middlewares/Third_Party/RealThread_RTOS_RT-Thread/src/thread.c ****     thread->number_mask = 1L << thread->number;
 279:Middlewares/Third_Party/RealThread_RTOS_RT-Thread/src/thread.c ****     thread->high_mask   = 1L << (thread->current_priority & 0x07);  /* 3bit */
 280:Middlewares/Third_Party/RealThread_RTOS_RT-Thread/src/thread.c **** #else
 281:Middlewares/Third_Party/RealThread_RTOS_RT-Thread/src/thread.c ****     thread->number_mask = 1L << thread->current_priority;
 282:Middlewares/Third_Party/RealThread_RTOS_RT-Thread/src/thread.c **** #endif
 283:Middlewares/Third_Party/RealThread_RTOS_RT-Thread/src/thread.c **** 
 284:Middlewares/Third_Party/RealThread_RTOS_RT-Thread/src/thread.c ****     RT_DEBUG_LOG(RT_DEBUG_THREAD, ("startup a thread:%s with priority:%d\n",
 285:Middlewares/Third_Party/RealThread_RTOS_RT-Thread/src/thread.c ****                                    thread->name, thread->init_priority));
 286:Middlewares/Third_Party/RealThread_RTOS_RT-Thread/src/thread.c ****     /* change thread stat */
 287:Middlewares/Third_Party/RealThread_RTOS_RT-Thread/src/thread.c ****     thread->stat = RT_THREAD_SUSPEND;
 288:Middlewares/Third_Party/RealThread_RTOS_RT-Thread/src/thread.c ****     /* then resume it */
 289:Middlewares/Third_Party/RealThread_RTOS_RT-Thread/src/thread.c ****     rt_thread_resume(thread);
 290:Middlewares/Third_Party/RealThread_RTOS_RT-Thread/src/thread.c ****     if (rt_thread_self() != RT_NULL)
 291:Middlewares/Third_Party/RealThread_RTOS_RT-Thread/src/thread.c ****     {
 292:Middlewares/Third_Party/RealThread_RTOS_RT-Thread/src/thread.c ****         /* do a scheduling */
 293:Middlewares/Third_Party/RealThread_RTOS_RT-Thread/src/thread.c ****         rt_schedule();
 294:Middlewares/Third_Party/RealThread_RTOS_RT-Thread/src/thread.c ****     }
 295:Middlewares/Third_Party/RealThread_RTOS_RT-Thread/src/thread.c **** 
 296:Middlewares/Third_Party/RealThread_RTOS_RT-Thread/src/thread.c ****     return RT_EOK;
 297:Middlewares/Third_Party/RealThread_RTOS_RT-Thread/src/thread.c **** }
 298:Middlewares/Third_Party/RealThread_RTOS_RT-Thread/src/thread.c **** RTM_EXPORT(rt_thread_startup);
 299:Middlewares/Third_Party/RealThread_RTOS_RT-Thread/src/thread.c **** 
 300:Middlewares/Third_Party/RealThread_RTOS_RT-Thread/src/thread.c **** /**
 301:Middlewares/Third_Party/RealThread_RTOS_RT-Thread/src/thread.c ****  * This function will detach a thread. The thread object will be removed from
 302:Middlewares/Third_Party/RealThread_RTOS_RT-Thread/src/thread.c ****  * thread queue and detached/deleted from system object management.
 303:Middlewares/Third_Party/RealThread_RTOS_RT-Thread/src/thread.c ****  *
 304:Middlewares/Third_Party/RealThread_RTOS_RT-Thread/src/thread.c ****  * @param thread the thread to be deleted
 305:Middlewares/Third_Party/RealThread_RTOS_RT-Thread/src/thread.c ****  *
 306:Middlewares/Third_Party/RealThread_RTOS_RT-Thread/src/thread.c ****  * @return the operation status, RT_EOK on OK, -RT_ERROR on error
 307:Middlewares/Third_Party/RealThread_RTOS_RT-Thread/src/thread.c ****  */
 308:Middlewares/Third_Party/RealThread_RTOS_RT-Thread/src/thread.c **** rt_err_t rt_thread_detach(rt_thread_t thread)
 309:Middlewares/Third_Party/RealThread_RTOS_RT-Thread/src/thread.c **** {
 310:Middlewares/Third_Party/RealThread_RTOS_RT-Thread/src/thread.c ****     rt_base_t lock;
 311:Middlewares/Third_Party/RealThread_RTOS_RT-Thread/src/thread.c **** 
 312:Middlewares/Third_Party/RealThread_RTOS_RT-Thread/src/thread.c ****     /* thread check */
 313:Middlewares/Third_Party/RealThread_RTOS_RT-Thread/src/thread.c ****     RT_ASSERT(thread != RT_NULL);
 314:Middlewares/Third_Party/RealThread_RTOS_RT-Thread/src/thread.c ****     RT_ASSERT(rt_object_get_type((rt_object_t)thread) == RT_Object_Class_Thread);
 315:Middlewares/Third_Party/RealThread_RTOS_RT-Thread/src/thread.c ****     RT_ASSERT(rt_object_is_systemobject((rt_object_t)thread));
 316:Middlewares/Third_Party/RealThread_RTOS_RT-Thread/src/thread.c **** 
 317:Middlewares/Third_Party/RealThread_RTOS_RT-Thread/src/thread.c ****     if ((thread->stat & RT_THREAD_STAT_MASK) != RT_THREAD_INIT)
 318:Middlewares/Third_Party/RealThread_RTOS_RT-Thread/src/thread.c ****     {
 319:Middlewares/Third_Party/RealThread_RTOS_RT-Thread/src/thread.c ****         /* remove from schedule */
 320:Middlewares/Third_Party/RealThread_RTOS_RT-Thread/src/thread.c ****         rt_schedule_remove_thread(thread);
 321:Middlewares/Third_Party/RealThread_RTOS_RT-Thread/src/thread.c ****     }
 322:Middlewares/Third_Party/RealThread_RTOS_RT-Thread/src/thread.c **** 
 323:Middlewares/Third_Party/RealThread_RTOS_RT-Thread/src/thread.c ****     /* release thread timer */
 324:Middlewares/Third_Party/RealThread_RTOS_RT-Thread/src/thread.c ****     rt_timer_detach(&(thread->thread_timer));
 325:Middlewares/Third_Party/RealThread_RTOS_RT-Thread/src/thread.c **** 
 326:Middlewares/Third_Party/RealThread_RTOS_RT-Thread/src/thread.c ****     /* change stat */
 327:Middlewares/Third_Party/RealThread_RTOS_RT-Thread/src/thread.c ****     thread->stat = RT_THREAD_CLOSE;
 328:Middlewares/Third_Party/RealThread_RTOS_RT-Thread/src/thread.c **** 
 329:Middlewares/Third_Party/RealThread_RTOS_RT-Thread/src/thread.c ****     if ((rt_object_is_systemobject((rt_object_t)thread) == RT_TRUE) &&
 330:Middlewares/Third_Party/RealThread_RTOS_RT-Thread/src/thread.c ****         thread->cleanup == RT_NULL)
 331:Middlewares/Third_Party/RealThread_RTOS_RT-Thread/src/thread.c ****     {
 332:Middlewares/Third_Party/RealThread_RTOS_RT-Thread/src/thread.c ****         rt_object_detach((rt_object_t)thread);
 333:Middlewares/Third_Party/RealThread_RTOS_RT-Thread/src/thread.c ****     }
ARM GAS  C:\Users\GKQ\AppData\Local\Temp\ccA2Fcx9.s 			page 13


 334:Middlewares/Third_Party/RealThread_RTOS_RT-Thread/src/thread.c ****     else
 335:Middlewares/Third_Party/RealThread_RTOS_RT-Thread/src/thread.c ****     {
 336:Middlewares/Third_Party/RealThread_RTOS_RT-Thread/src/thread.c ****         /* disable interrupt */
 337:Middlewares/Third_Party/RealThread_RTOS_RT-Thread/src/thread.c ****         lock = rt_hw_interrupt_disable();
 338:Middlewares/Third_Party/RealThread_RTOS_RT-Thread/src/thread.c ****         /* insert to defunct thread list */
 339:Middlewares/Third_Party/RealThread_RTOS_RT-Thread/src/thread.c ****         rt_list_insert_after(&rt_thread_defunct, &(thread->tlist));
 340:Middlewares/Third_Party/RealThread_RTOS_RT-Thread/src/thread.c ****         /* enable interrupt */
 341:Middlewares/Third_Party/RealThread_RTOS_RT-Thread/src/thread.c ****         rt_hw_interrupt_enable(lock);
 342:Middlewares/Third_Party/RealThread_RTOS_RT-Thread/src/thread.c ****     }
 343:Middlewares/Third_Party/RealThread_RTOS_RT-Thread/src/thread.c **** 
 344:Middlewares/Third_Party/RealThread_RTOS_RT-Thread/src/thread.c ****     return RT_EOK;
 345:Middlewares/Third_Party/RealThread_RTOS_RT-Thread/src/thread.c **** }
 346:Middlewares/Third_Party/RealThread_RTOS_RT-Thread/src/thread.c **** RTM_EXPORT(rt_thread_detach);
 347:Middlewares/Third_Party/RealThread_RTOS_RT-Thread/src/thread.c **** 
 348:Middlewares/Third_Party/RealThread_RTOS_RT-Thread/src/thread.c **** #ifdef RT_USING_HEAP
 349:Middlewares/Third_Party/RealThread_RTOS_RT-Thread/src/thread.c **** /**
 350:Middlewares/Third_Party/RealThread_RTOS_RT-Thread/src/thread.c ****  * This function will create a thread object and allocate thread object memory
 351:Middlewares/Third_Party/RealThread_RTOS_RT-Thread/src/thread.c ****  * and stack.
 352:Middlewares/Third_Party/RealThread_RTOS_RT-Thread/src/thread.c ****  *
 353:Middlewares/Third_Party/RealThread_RTOS_RT-Thread/src/thread.c ****  * @param name the name of thread, which shall be unique
 354:Middlewares/Third_Party/RealThread_RTOS_RT-Thread/src/thread.c ****  * @param entry the entry function of thread
 355:Middlewares/Third_Party/RealThread_RTOS_RT-Thread/src/thread.c ****  * @param parameter the parameter of thread enter function
 356:Middlewares/Third_Party/RealThread_RTOS_RT-Thread/src/thread.c ****  * @param stack_size the size of thread stack
 357:Middlewares/Third_Party/RealThread_RTOS_RT-Thread/src/thread.c ****  * @param priority the priority of thread
 358:Middlewares/Third_Party/RealThread_RTOS_RT-Thread/src/thread.c ****  * @param tick the time slice if there are same priority thread
 359:Middlewares/Third_Party/RealThread_RTOS_RT-Thread/src/thread.c ****  *
 360:Middlewares/Third_Party/RealThread_RTOS_RT-Thread/src/thread.c ****  * @return the created thread object
 361:Middlewares/Third_Party/RealThread_RTOS_RT-Thread/src/thread.c ****  */
 362:Middlewares/Third_Party/RealThread_RTOS_RT-Thread/src/thread.c **** rt_thread_t rt_thread_create(const char *name,
 363:Middlewares/Third_Party/RealThread_RTOS_RT-Thread/src/thread.c ****                              void (*entry)(void *parameter),
 364:Middlewares/Third_Party/RealThread_RTOS_RT-Thread/src/thread.c ****                              void       *parameter,
 365:Middlewares/Third_Party/RealThread_RTOS_RT-Thread/src/thread.c ****                              rt_uint32_t stack_size,
 366:Middlewares/Third_Party/RealThread_RTOS_RT-Thread/src/thread.c ****                              rt_uint8_t  priority,
 367:Middlewares/Third_Party/RealThread_RTOS_RT-Thread/src/thread.c ****                              rt_uint32_t tick)
 368:Middlewares/Third_Party/RealThread_RTOS_RT-Thread/src/thread.c **** {
 369:Middlewares/Third_Party/RealThread_RTOS_RT-Thread/src/thread.c ****     struct rt_thread *thread;
 370:Middlewares/Third_Party/RealThread_RTOS_RT-Thread/src/thread.c ****     void *stack_start;
 371:Middlewares/Third_Party/RealThread_RTOS_RT-Thread/src/thread.c **** 
 372:Middlewares/Third_Party/RealThread_RTOS_RT-Thread/src/thread.c ****     thread = (struct rt_thread *)rt_object_allocate(RT_Object_Class_Thread,
 373:Middlewares/Third_Party/RealThread_RTOS_RT-Thread/src/thread.c ****                                                     name);
 374:Middlewares/Third_Party/RealThread_RTOS_RT-Thread/src/thread.c ****     if (thread == RT_NULL)
 375:Middlewares/Third_Party/RealThread_RTOS_RT-Thread/src/thread.c ****         return RT_NULL;
 376:Middlewares/Third_Party/RealThread_RTOS_RT-Thread/src/thread.c **** 
 377:Middlewares/Third_Party/RealThread_RTOS_RT-Thread/src/thread.c ****     stack_start = (void *)RT_KERNEL_MALLOC(stack_size);
 378:Middlewares/Third_Party/RealThread_RTOS_RT-Thread/src/thread.c ****     if (stack_start == RT_NULL)
 379:Middlewares/Third_Party/RealThread_RTOS_RT-Thread/src/thread.c ****     {
 380:Middlewares/Third_Party/RealThread_RTOS_RT-Thread/src/thread.c ****         /* allocate stack failure */
 381:Middlewares/Third_Party/RealThread_RTOS_RT-Thread/src/thread.c ****         rt_object_delete((rt_object_t)thread);
 382:Middlewares/Third_Party/RealThread_RTOS_RT-Thread/src/thread.c **** 
 383:Middlewares/Third_Party/RealThread_RTOS_RT-Thread/src/thread.c ****         return RT_NULL;
 384:Middlewares/Third_Party/RealThread_RTOS_RT-Thread/src/thread.c ****     }
 385:Middlewares/Third_Party/RealThread_RTOS_RT-Thread/src/thread.c **** 
 386:Middlewares/Third_Party/RealThread_RTOS_RT-Thread/src/thread.c ****     _rt_thread_init(thread,
 387:Middlewares/Third_Party/RealThread_RTOS_RT-Thread/src/thread.c ****                     name,
 388:Middlewares/Third_Party/RealThread_RTOS_RT-Thread/src/thread.c ****                     entry,
 389:Middlewares/Third_Party/RealThread_RTOS_RT-Thread/src/thread.c ****                     parameter,
 390:Middlewares/Third_Party/RealThread_RTOS_RT-Thread/src/thread.c ****                     stack_start,
ARM GAS  C:\Users\GKQ\AppData\Local\Temp\ccA2Fcx9.s 			page 14


 391:Middlewares/Third_Party/RealThread_RTOS_RT-Thread/src/thread.c ****                     stack_size,
 392:Middlewares/Third_Party/RealThread_RTOS_RT-Thread/src/thread.c ****                     priority,
 393:Middlewares/Third_Party/RealThread_RTOS_RT-Thread/src/thread.c ****                     tick);
 394:Middlewares/Third_Party/RealThread_RTOS_RT-Thread/src/thread.c **** 
 395:Middlewares/Third_Party/RealThread_RTOS_RT-Thread/src/thread.c ****     return thread;
 396:Middlewares/Third_Party/RealThread_RTOS_RT-Thread/src/thread.c **** }
 397:Middlewares/Third_Party/RealThread_RTOS_RT-Thread/src/thread.c **** RTM_EXPORT(rt_thread_create);
 398:Middlewares/Third_Party/RealThread_RTOS_RT-Thread/src/thread.c **** 
 399:Middlewares/Third_Party/RealThread_RTOS_RT-Thread/src/thread.c **** /**
 400:Middlewares/Third_Party/RealThread_RTOS_RT-Thread/src/thread.c ****  * This function will delete a thread. The thread object will be removed from
 401:Middlewares/Third_Party/RealThread_RTOS_RT-Thread/src/thread.c ****  * thread queue and deleted from system object management in the idle thread.
 402:Middlewares/Third_Party/RealThread_RTOS_RT-Thread/src/thread.c ****  *
 403:Middlewares/Third_Party/RealThread_RTOS_RT-Thread/src/thread.c ****  * @param thread the thread to be deleted
 404:Middlewares/Third_Party/RealThread_RTOS_RT-Thread/src/thread.c ****  *
 405:Middlewares/Third_Party/RealThread_RTOS_RT-Thread/src/thread.c ****  * @return the operation status, RT_EOK on OK, -RT_ERROR on error
 406:Middlewares/Third_Party/RealThread_RTOS_RT-Thread/src/thread.c ****  */
 407:Middlewares/Third_Party/RealThread_RTOS_RT-Thread/src/thread.c **** rt_err_t rt_thread_delete(rt_thread_t thread)
 408:Middlewares/Third_Party/RealThread_RTOS_RT-Thread/src/thread.c **** {
 409:Middlewares/Third_Party/RealThread_RTOS_RT-Thread/src/thread.c ****     rt_base_t lock;
 410:Middlewares/Third_Party/RealThread_RTOS_RT-Thread/src/thread.c **** 
 411:Middlewares/Third_Party/RealThread_RTOS_RT-Thread/src/thread.c ****     /* thread check */
 412:Middlewares/Third_Party/RealThread_RTOS_RT-Thread/src/thread.c ****     RT_ASSERT(thread != RT_NULL);
 413:Middlewares/Third_Party/RealThread_RTOS_RT-Thread/src/thread.c ****     RT_ASSERT(rt_object_get_type((rt_object_t)thread) == RT_Object_Class_Thread);
 414:Middlewares/Third_Party/RealThread_RTOS_RT-Thread/src/thread.c ****     RT_ASSERT(rt_object_is_systemobject((rt_object_t)thread) == RT_FALSE);
 415:Middlewares/Third_Party/RealThread_RTOS_RT-Thread/src/thread.c **** 
 416:Middlewares/Third_Party/RealThread_RTOS_RT-Thread/src/thread.c ****     if ((thread->stat & RT_THREAD_STAT_MASK) != RT_THREAD_INIT)
 417:Middlewares/Third_Party/RealThread_RTOS_RT-Thread/src/thread.c ****     {
 418:Middlewares/Third_Party/RealThread_RTOS_RT-Thread/src/thread.c ****         /* remove from schedule */
 419:Middlewares/Third_Party/RealThread_RTOS_RT-Thread/src/thread.c ****         rt_schedule_remove_thread(thread);
 420:Middlewares/Third_Party/RealThread_RTOS_RT-Thread/src/thread.c ****     }
 421:Middlewares/Third_Party/RealThread_RTOS_RT-Thread/src/thread.c **** 
 422:Middlewares/Third_Party/RealThread_RTOS_RT-Thread/src/thread.c ****     /* release thread timer */
 423:Middlewares/Third_Party/RealThread_RTOS_RT-Thread/src/thread.c ****     rt_timer_detach(&(thread->thread_timer));
 424:Middlewares/Third_Party/RealThread_RTOS_RT-Thread/src/thread.c **** 
 425:Middlewares/Third_Party/RealThread_RTOS_RT-Thread/src/thread.c ****     /* change stat */
 426:Middlewares/Third_Party/RealThread_RTOS_RT-Thread/src/thread.c ****     thread->stat = RT_THREAD_CLOSE;
 427:Middlewares/Third_Party/RealThread_RTOS_RT-Thread/src/thread.c **** 
 428:Middlewares/Third_Party/RealThread_RTOS_RT-Thread/src/thread.c ****     /* disable interrupt */
 429:Middlewares/Third_Party/RealThread_RTOS_RT-Thread/src/thread.c ****     lock = rt_hw_interrupt_disable();
 430:Middlewares/Third_Party/RealThread_RTOS_RT-Thread/src/thread.c **** 
 431:Middlewares/Third_Party/RealThread_RTOS_RT-Thread/src/thread.c ****     /* insert to defunct thread list */
 432:Middlewares/Third_Party/RealThread_RTOS_RT-Thread/src/thread.c ****     rt_list_insert_after(&rt_thread_defunct, &(thread->tlist));
 433:Middlewares/Third_Party/RealThread_RTOS_RT-Thread/src/thread.c **** 
 434:Middlewares/Third_Party/RealThread_RTOS_RT-Thread/src/thread.c ****     /* enable interrupt */
 435:Middlewares/Third_Party/RealThread_RTOS_RT-Thread/src/thread.c ****     rt_hw_interrupt_enable(lock);
 436:Middlewares/Third_Party/RealThread_RTOS_RT-Thread/src/thread.c **** 
 437:Middlewares/Third_Party/RealThread_RTOS_RT-Thread/src/thread.c ****     return RT_EOK;
 438:Middlewares/Third_Party/RealThread_RTOS_RT-Thread/src/thread.c **** }
 439:Middlewares/Third_Party/RealThread_RTOS_RT-Thread/src/thread.c **** RTM_EXPORT(rt_thread_delete);
 440:Middlewares/Third_Party/RealThread_RTOS_RT-Thread/src/thread.c **** #endif
 441:Middlewares/Third_Party/RealThread_RTOS_RT-Thread/src/thread.c **** 
 442:Middlewares/Third_Party/RealThread_RTOS_RT-Thread/src/thread.c **** /**
 443:Middlewares/Third_Party/RealThread_RTOS_RT-Thread/src/thread.c ****  * This function will let current thread yield processor, and scheduler will
 444:Middlewares/Third_Party/RealThread_RTOS_RT-Thread/src/thread.c ****  * choose a highest thread to run. After yield processor, the current thread
 445:Middlewares/Third_Party/RealThread_RTOS_RT-Thread/src/thread.c ****  * is still in READY state.
 446:Middlewares/Third_Party/RealThread_RTOS_RT-Thread/src/thread.c ****  *
 447:Middlewares/Third_Party/RealThread_RTOS_RT-Thread/src/thread.c ****  * @return RT_EOK
ARM GAS  C:\Users\GKQ\AppData\Local\Temp\ccA2Fcx9.s 			page 15


 448:Middlewares/Third_Party/RealThread_RTOS_RT-Thread/src/thread.c ****  */
 449:Middlewares/Third_Party/RealThread_RTOS_RT-Thread/src/thread.c **** rt_err_t rt_thread_yield(void)
 450:Middlewares/Third_Party/RealThread_RTOS_RT-Thread/src/thread.c **** {
 451:Middlewares/Third_Party/RealThread_RTOS_RT-Thread/src/thread.c ****     register rt_base_t level;
 452:Middlewares/Third_Party/RealThread_RTOS_RT-Thread/src/thread.c ****     struct rt_thread *thread;
 453:Middlewares/Third_Party/RealThread_RTOS_RT-Thread/src/thread.c **** 
 454:Middlewares/Third_Party/RealThread_RTOS_RT-Thread/src/thread.c ****     /* disable interrupt */
 455:Middlewares/Third_Party/RealThread_RTOS_RT-Thread/src/thread.c ****     level = rt_hw_interrupt_disable();
 456:Middlewares/Third_Party/RealThread_RTOS_RT-Thread/src/thread.c **** 
 457:Middlewares/Third_Party/RealThread_RTOS_RT-Thread/src/thread.c ****     /* set to current thread */
 458:Middlewares/Third_Party/RealThread_RTOS_RT-Thread/src/thread.c ****     thread = rt_current_thread;
 459:Middlewares/Third_Party/RealThread_RTOS_RT-Thread/src/thread.c **** 
 460:Middlewares/Third_Party/RealThread_RTOS_RT-Thread/src/thread.c ****     /* if the thread stat is READY and on ready queue list */
 461:Middlewares/Third_Party/RealThread_RTOS_RT-Thread/src/thread.c ****     if ((thread->stat & RT_THREAD_STAT_MASK) == RT_THREAD_READY &&
 462:Middlewares/Third_Party/RealThread_RTOS_RT-Thread/src/thread.c ****         thread->tlist.next != thread->tlist.prev)
 463:Middlewares/Third_Party/RealThread_RTOS_RT-Thread/src/thread.c ****     {
 464:Middlewares/Third_Party/RealThread_RTOS_RT-Thread/src/thread.c ****         /* remove thread from thread list */
 465:Middlewares/Third_Party/RealThread_RTOS_RT-Thread/src/thread.c ****         rt_list_remove(&(thread->tlist));
 466:Middlewares/Third_Party/RealThread_RTOS_RT-Thread/src/thread.c **** 
 467:Middlewares/Third_Party/RealThread_RTOS_RT-Thread/src/thread.c ****         /* put thread to end of ready queue */
 468:Middlewares/Third_Party/RealThread_RTOS_RT-Thread/src/thread.c ****         rt_list_insert_before(&(rt_thread_priority_table[thread->current_priority]),
 469:Middlewares/Third_Party/RealThread_RTOS_RT-Thread/src/thread.c ****                               &(thread->tlist));
 470:Middlewares/Third_Party/RealThread_RTOS_RT-Thread/src/thread.c **** 
 471:Middlewares/Third_Party/RealThread_RTOS_RT-Thread/src/thread.c ****         /* enable interrupt */
 472:Middlewares/Third_Party/RealThread_RTOS_RT-Thread/src/thread.c ****         rt_hw_interrupt_enable(level);
 473:Middlewares/Third_Party/RealThread_RTOS_RT-Thread/src/thread.c **** 
 474:Middlewares/Third_Party/RealThread_RTOS_RT-Thread/src/thread.c ****         rt_schedule();
 475:Middlewares/Third_Party/RealThread_RTOS_RT-Thread/src/thread.c **** 
 476:Middlewares/Third_Party/RealThread_RTOS_RT-Thread/src/thread.c ****         return RT_EOK;
 477:Middlewares/Third_Party/RealThread_RTOS_RT-Thread/src/thread.c ****     }
 478:Middlewares/Third_Party/RealThread_RTOS_RT-Thread/src/thread.c **** 
 479:Middlewares/Third_Party/RealThread_RTOS_RT-Thread/src/thread.c ****     /* enable interrupt */
 480:Middlewares/Third_Party/RealThread_RTOS_RT-Thread/src/thread.c ****     rt_hw_interrupt_enable(level);
 481:Middlewares/Third_Party/RealThread_RTOS_RT-Thread/src/thread.c **** 
 482:Middlewares/Third_Party/RealThread_RTOS_RT-Thread/src/thread.c ****     return RT_EOK;
 483:Middlewares/Third_Party/RealThread_RTOS_RT-Thread/src/thread.c **** }
 484:Middlewares/Third_Party/RealThread_RTOS_RT-Thread/src/thread.c **** RTM_EXPORT(rt_thread_yield);
 485:Middlewares/Third_Party/RealThread_RTOS_RT-Thread/src/thread.c **** 
 486:Middlewares/Third_Party/RealThread_RTOS_RT-Thread/src/thread.c **** /**
 487:Middlewares/Third_Party/RealThread_RTOS_RT-Thread/src/thread.c ****  * This function will let current thread sleep for some ticks.
 488:Middlewares/Third_Party/RealThread_RTOS_RT-Thread/src/thread.c ****  *
 489:Middlewares/Third_Party/RealThread_RTOS_RT-Thread/src/thread.c ****  * @param tick the sleep ticks
 490:Middlewares/Third_Party/RealThread_RTOS_RT-Thread/src/thread.c ****  *
 491:Middlewares/Third_Party/RealThread_RTOS_RT-Thread/src/thread.c ****  * @return RT_EOK
 492:Middlewares/Third_Party/RealThread_RTOS_RT-Thread/src/thread.c ****  */
 493:Middlewares/Third_Party/RealThread_RTOS_RT-Thread/src/thread.c **** rt_err_t rt_thread_sleep(rt_tick_t tick)
 494:Middlewares/Third_Party/RealThread_RTOS_RT-Thread/src/thread.c **** {
 495:Middlewares/Third_Party/RealThread_RTOS_RT-Thread/src/thread.c ****     register rt_base_t temp;
 496:Middlewares/Third_Party/RealThread_RTOS_RT-Thread/src/thread.c ****     struct rt_thread *thread;
 497:Middlewares/Third_Party/RealThread_RTOS_RT-Thread/src/thread.c **** 
 498:Middlewares/Third_Party/RealThread_RTOS_RT-Thread/src/thread.c ****     /* disable interrupt */
 499:Middlewares/Third_Party/RealThread_RTOS_RT-Thread/src/thread.c ****     temp = rt_hw_interrupt_disable();
 500:Middlewares/Third_Party/RealThread_RTOS_RT-Thread/src/thread.c ****     /* set to current thread */
 501:Middlewares/Third_Party/RealThread_RTOS_RT-Thread/src/thread.c ****     thread = rt_current_thread;
 502:Middlewares/Third_Party/RealThread_RTOS_RT-Thread/src/thread.c ****     RT_ASSERT(thread != RT_NULL);
 503:Middlewares/Third_Party/RealThread_RTOS_RT-Thread/src/thread.c ****     RT_ASSERT(rt_object_get_type((rt_object_t)thread) == RT_Object_Class_Thread);
 504:Middlewares/Third_Party/RealThread_RTOS_RT-Thread/src/thread.c **** 
ARM GAS  C:\Users\GKQ\AppData\Local\Temp\ccA2Fcx9.s 			page 16


 505:Middlewares/Third_Party/RealThread_RTOS_RT-Thread/src/thread.c ****     /* suspend thread */
 506:Middlewares/Third_Party/RealThread_RTOS_RT-Thread/src/thread.c ****     rt_thread_suspend(thread);
 507:Middlewares/Third_Party/RealThread_RTOS_RT-Thread/src/thread.c **** 
 508:Middlewares/Third_Party/RealThread_RTOS_RT-Thread/src/thread.c ****     /* reset the timeout of thread timer and start it */
 509:Middlewares/Third_Party/RealThread_RTOS_RT-Thread/src/thread.c ****     rt_timer_control(&(thread->thread_timer), RT_TIMER_CTRL_SET_TIME, &tick);
 510:Middlewares/Third_Party/RealThread_RTOS_RT-Thread/src/thread.c ****     rt_timer_start(&(thread->thread_timer));
 511:Middlewares/Third_Party/RealThread_RTOS_RT-Thread/src/thread.c **** 
 512:Middlewares/Third_Party/RealThread_RTOS_RT-Thread/src/thread.c ****     /* enable interrupt */
 513:Middlewares/Third_Party/RealThread_RTOS_RT-Thread/src/thread.c ****     rt_hw_interrupt_enable(temp);
 514:Middlewares/Third_Party/RealThread_RTOS_RT-Thread/src/thread.c **** 
 515:Middlewares/Third_Party/RealThread_RTOS_RT-Thread/src/thread.c ****     rt_schedule();
 516:Middlewares/Third_Party/RealThread_RTOS_RT-Thread/src/thread.c **** 
 517:Middlewares/Third_Party/RealThread_RTOS_RT-Thread/src/thread.c ****     /* clear error number of this thread to RT_EOK */
 518:Middlewares/Third_Party/RealThread_RTOS_RT-Thread/src/thread.c ****     if (thread->error == -RT_ETIMEOUT)
 519:Middlewares/Third_Party/RealThread_RTOS_RT-Thread/src/thread.c ****         thread->error = RT_EOK;
 520:Middlewares/Third_Party/RealThread_RTOS_RT-Thread/src/thread.c **** 
 521:Middlewares/Third_Party/RealThread_RTOS_RT-Thread/src/thread.c ****     return RT_EOK;
 522:Middlewares/Third_Party/RealThread_RTOS_RT-Thread/src/thread.c **** }
 523:Middlewares/Third_Party/RealThread_RTOS_RT-Thread/src/thread.c **** 
 524:Middlewares/Third_Party/RealThread_RTOS_RT-Thread/src/thread.c **** /**
 525:Middlewares/Third_Party/RealThread_RTOS_RT-Thread/src/thread.c ****  * This function will let current thread delay for some ticks.
 526:Middlewares/Third_Party/RealThread_RTOS_RT-Thread/src/thread.c ****  *
 527:Middlewares/Third_Party/RealThread_RTOS_RT-Thread/src/thread.c ****  * @param tick the delay ticks
 528:Middlewares/Third_Party/RealThread_RTOS_RT-Thread/src/thread.c ****  *
 529:Middlewares/Third_Party/RealThread_RTOS_RT-Thread/src/thread.c ****  * @return RT_EOK
 530:Middlewares/Third_Party/RealThread_RTOS_RT-Thread/src/thread.c ****  */
 531:Middlewares/Third_Party/RealThread_RTOS_RT-Thread/src/thread.c **** rt_err_t rt_thread_delay(rt_tick_t tick)
 532:Middlewares/Third_Party/RealThread_RTOS_RT-Thread/src/thread.c **** {
 533:Middlewares/Third_Party/RealThread_RTOS_RT-Thread/src/thread.c ****     return rt_thread_sleep(tick);
 534:Middlewares/Third_Party/RealThread_RTOS_RT-Thread/src/thread.c **** }
 535:Middlewares/Third_Party/RealThread_RTOS_RT-Thread/src/thread.c **** RTM_EXPORT(rt_thread_delay);
 536:Middlewares/Third_Party/RealThread_RTOS_RT-Thread/src/thread.c **** 
 537:Middlewares/Third_Party/RealThread_RTOS_RT-Thread/src/thread.c **** /**
 538:Middlewares/Third_Party/RealThread_RTOS_RT-Thread/src/thread.c ****  * This function will let current thread delay for some milliseconds.
 539:Middlewares/Third_Party/RealThread_RTOS_RT-Thread/src/thread.c ****  *
 540:Middlewares/Third_Party/RealThread_RTOS_RT-Thread/src/thread.c ****  * @param tick the delay time
 541:Middlewares/Third_Party/RealThread_RTOS_RT-Thread/src/thread.c ****  *
 542:Middlewares/Third_Party/RealThread_RTOS_RT-Thread/src/thread.c ****  * @return RT_EOK
 543:Middlewares/Third_Party/RealThread_RTOS_RT-Thread/src/thread.c ****  */
 544:Middlewares/Third_Party/RealThread_RTOS_RT-Thread/src/thread.c **** rt_err_t rt_thread_mdelay(rt_int32_t ms)
 545:Middlewares/Third_Party/RealThread_RTOS_RT-Thread/src/thread.c **** {
 546:Middlewares/Third_Party/RealThread_RTOS_RT-Thread/src/thread.c ****     rt_tick_t tick;
 547:Middlewares/Third_Party/RealThread_RTOS_RT-Thread/src/thread.c **** 
 548:Middlewares/Third_Party/RealThread_RTOS_RT-Thread/src/thread.c ****     tick = rt_tick_from_millisecond(ms);
 549:Middlewares/Third_Party/RealThread_RTOS_RT-Thread/src/thread.c **** 
 550:Middlewares/Third_Party/RealThread_RTOS_RT-Thread/src/thread.c ****     return rt_thread_sleep(tick);
 551:Middlewares/Third_Party/RealThread_RTOS_RT-Thread/src/thread.c **** }
 552:Middlewares/Third_Party/RealThread_RTOS_RT-Thread/src/thread.c **** RTM_EXPORT(rt_thread_mdelay);
 553:Middlewares/Third_Party/RealThread_RTOS_RT-Thread/src/thread.c **** 
 554:Middlewares/Third_Party/RealThread_RTOS_RT-Thread/src/thread.c **** /**
 555:Middlewares/Third_Party/RealThread_RTOS_RT-Thread/src/thread.c ****  * This function will control thread behaviors according to control command.
 556:Middlewares/Third_Party/RealThread_RTOS_RT-Thread/src/thread.c ****  *
 557:Middlewares/Third_Party/RealThread_RTOS_RT-Thread/src/thread.c ****  * @param thread the specified thread to be controlled
 558:Middlewares/Third_Party/RealThread_RTOS_RT-Thread/src/thread.c ****  * @param cmd the control command, which includes
 559:Middlewares/Third_Party/RealThread_RTOS_RT-Thread/src/thread.c ****  *  RT_THREAD_CTRL_CHANGE_PRIORITY for changing priority level of thread;
 560:Middlewares/Third_Party/RealThread_RTOS_RT-Thread/src/thread.c ****  *  RT_THREAD_CTRL_STARTUP for starting a thread;
 561:Middlewares/Third_Party/RealThread_RTOS_RT-Thread/src/thread.c ****  *  RT_THREAD_CTRL_CLOSE for delete a thread.
ARM GAS  C:\Users\GKQ\AppData\Local\Temp\ccA2Fcx9.s 			page 17


 562:Middlewares/Third_Party/RealThread_RTOS_RT-Thread/src/thread.c ****  * @param arg the argument of control command
 563:Middlewares/Third_Party/RealThread_RTOS_RT-Thread/src/thread.c ****  *
 564:Middlewares/Third_Party/RealThread_RTOS_RT-Thread/src/thread.c ****  * @return RT_EOK
 565:Middlewares/Third_Party/RealThread_RTOS_RT-Thread/src/thread.c ****  */
 566:Middlewares/Third_Party/RealThread_RTOS_RT-Thread/src/thread.c **** rt_err_t rt_thread_control(rt_thread_t thread, int cmd, void *arg)
 567:Middlewares/Third_Party/RealThread_RTOS_RT-Thread/src/thread.c **** {
 568:Middlewares/Third_Party/RealThread_RTOS_RT-Thread/src/thread.c ****     register rt_base_t temp;
 569:Middlewares/Third_Party/RealThread_RTOS_RT-Thread/src/thread.c **** 
 570:Middlewares/Third_Party/RealThread_RTOS_RT-Thread/src/thread.c ****     /* thread check */
 571:Middlewares/Third_Party/RealThread_RTOS_RT-Thread/src/thread.c ****     RT_ASSERT(thread != RT_NULL);
 572:Middlewares/Third_Party/RealThread_RTOS_RT-Thread/src/thread.c ****     RT_ASSERT(rt_object_get_type((rt_object_t)thread) == RT_Object_Class_Thread);
 573:Middlewares/Third_Party/RealThread_RTOS_RT-Thread/src/thread.c **** 
 574:Middlewares/Third_Party/RealThread_RTOS_RT-Thread/src/thread.c ****     switch (cmd)
 575:Middlewares/Third_Party/RealThread_RTOS_RT-Thread/src/thread.c ****     {
 576:Middlewares/Third_Party/RealThread_RTOS_RT-Thread/src/thread.c ****     case RT_THREAD_CTRL_CHANGE_PRIORITY:
 577:Middlewares/Third_Party/RealThread_RTOS_RT-Thread/src/thread.c ****         /* disable interrupt */
 578:Middlewares/Third_Party/RealThread_RTOS_RT-Thread/src/thread.c ****         temp = rt_hw_interrupt_disable();
 579:Middlewares/Third_Party/RealThread_RTOS_RT-Thread/src/thread.c **** 
 580:Middlewares/Third_Party/RealThread_RTOS_RT-Thread/src/thread.c ****         /* for ready thread, change queue */
 581:Middlewares/Third_Party/RealThread_RTOS_RT-Thread/src/thread.c ****         if ((thread->stat & RT_THREAD_STAT_MASK) == RT_THREAD_READY)
 582:Middlewares/Third_Party/RealThread_RTOS_RT-Thread/src/thread.c ****         {
 583:Middlewares/Third_Party/RealThread_RTOS_RT-Thread/src/thread.c ****             /* remove thread from schedule queue first */
 584:Middlewares/Third_Party/RealThread_RTOS_RT-Thread/src/thread.c ****             rt_schedule_remove_thread(thread);
 585:Middlewares/Third_Party/RealThread_RTOS_RT-Thread/src/thread.c **** 
 586:Middlewares/Third_Party/RealThread_RTOS_RT-Thread/src/thread.c ****             /* change thread priority */
 587:Middlewares/Third_Party/RealThread_RTOS_RT-Thread/src/thread.c ****             thread->current_priority = *(rt_uint8_t *)arg;
 588:Middlewares/Third_Party/RealThread_RTOS_RT-Thread/src/thread.c **** 
 589:Middlewares/Third_Party/RealThread_RTOS_RT-Thread/src/thread.c ****             /* recalculate priority attribute */
 590:Middlewares/Third_Party/RealThread_RTOS_RT-Thread/src/thread.c **** #if RT_THREAD_PRIORITY_MAX > 32
 591:Middlewares/Third_Party/RealThread_RTOS_RT-Thread/src/thread.c ****             thread->number      = thread->current_priority >> 3;            /* 5bit */
 592:Middlewares/Third_Party/RealThread_RTOS_RT-Thread/src/thread.c ****             thread->number_mask = 1 << thread->number;
 593:Middlewares/Third_Party/RealThread_RTOS_RT-Thread/src/thread.c ****             thread->high_mask   = 1 << (thread->current_priority & 0x07);   /* 3bit */
 594:Middlewares/Third_Party/RealThread_RTOS_RT-Thread/src/thread.c **** #else
 595:Middlewares/Third_Party/RealThread_RTOS_RT-Thread/src/thread.c ****             thread->number_mask = 1 << thread->current_priority;
 596:Middlewares/Third_Party/RealThread_RTOS_RT-Thread/src/thread.c **** #endif
 597:Middlewares/Third_Party/RealThread_RTOS_RT-Thread/src/thread.c **** 
 598:Middlewares/Third_Party/RealThread_RTOS_RT-Thread/src/thread.c ****             /* insert thread to schedule queue again */
 599:Middlewares/Third_Party/RealThread_RTOS_RT-Thread/src/thread.c ****             rt_schedule_insert_thread(thread);
 600:Middlewares/Third_Party/RealThread_RTOS_RT-Thread/src/thread.c ****         }
 601:Middlewares/Third_Party/RealThread_RTOS_RT-Thread/src/thread.c ****         else
 602:Middlewares/Third_Party/RealThread_RTOS_RT-Thread/src/thread.c ****         {
 603:Middlewares/Third_Party/RealThread_RTOS_RT-Thread/src/thread.c ****             thread->current_priority = *(rt_uint8_t *)arg;
 604:Middlewares/Third_Party/RealThread_RTOS_RT-Thread/src/thread.c **** 
 605:Middlewares/Third_Party/RealThread_RTOS_RT-Thread/src/thread.c ****             /* recalculate priority attribute */
 606:Middlewares/Third_Party/RealThread_RTOS_RT-Thread/src/thread.c **** #if RT_THREAD_PRIORITY_MAX > 32
 607:Middlewares/Third_Party/RealThread_RTOS_RT-Thread/src/thread.c ****             thread->number      = thread->current_priority >> 3;            /* 5bit */
 608:Middlewares/Third_Party/RealThread_RTOS_RT-Thread/src/thread.c ****             thread->number_mask = 1 << thread->number;
 609:Middlewares/Third_Party/RealThread_RTOS_RT-Thread/src/thread.c ****             thread->high_mask   = 1 << (thread->current_priority & 0x07);   /* 3bit */
 610:Middlewares/Third_Party/RealThread_RTOS_RT-Thread/src/thread.c **** #else
 611:Middlewares/Third_Party/RealThread_RTOS_RT-Thread/src/thread.c ****             thread->number_mask = 1 << thread->current_priority;
 612:Middlewares/Third_Party/RealThread_RTOS_RT-Thread/src/thread.c **** #endif
 613:Middlewares/Third_Party/RealThread_RTOS_RT-Thread/src/thread.c ****         }
 614:Middlewares/Third_Party/RealThread_RTOS_RT-Thread/src/thread.c **** 
 615:Middlewares/Third_Party/RealThread_RTOS_RT-Thread/src/thread.c ****         /* enable interrupt */
 616:Middlewares/Third_Party/RealThread_RTOS_RT-Thread/src/thread.c ****         rt_hw_interrupt_enable(temp);
 617:Middlewares/Third_Party/RealThread_RTOS_RT-Thread/src/thread.c ****         break;
 618:Middlewares/Third_Party/RealThread_RTOS_RT-Thread/src/thread.c **** 
ARM GAS  C:\Users\GKQ\AppData\Local\Temp\ccA2Fcx9.s 			page 18


 619:Middlewares/Third_Party/RealThread_RTOS_RT-Thread/src/thread.c ****     case RT_THREAD_CTRL_STARTUP:
 620:Middlewares/Third_Party/RealThread_RTOS_RT-Thread/src/thread.c ****         return rt_thread_startup(thread);
 621:Middlewares/Third_Party/RealThread_RTOS_RT-Thread/src/thread.c **** 
 622:Middlewares/Third_Party/RealThread_RTOS_RT-Thread/src/thread.c **** #ifdef RT_USING_HEAP
 623:Middlewares/Third_Party/RealThread_RTOS_RT-Thread/src/thread.c ****     case RT_THREAD_CTRL_CLOSE:
 624:Middlewares/Third_Party/RealThread_RTOS_RT-Thread/src/thread.c ****         return rt_thread_delete(thread);
 625:Middlewares/Third_Party/RealThread_RTOS_RT-Thread/src/thread.c **** #endif
 626:Middlewares/Third_Party/RealThread_RTOS_RT-Thread/src/thread.c **** 
 627:Middlewares/Third_Party/RealThread_RTOS_RT-Thread/src/thread.c ****     default:
 628:Middlewares/Third_Party/RealThread_RTOS_RT-Thread/src/thread.c ****         break;
 629:Middlewares/Third_Party/RealThread_RTOS_RT-Thread/src/thread.c ****     }
 630:Middlewares/Third_Party/RealThread_RTOS_RT-Thread/src/thread.c **** 
 631:Middlewares/Third_Party/RealThread_RTOS_RT-Thread/src/thread.c ****     return RT_EOK;
 632:Middlewares/Third_Party/RealThread_RTOS_RT-Thread/src/thread.c **** }
 633:Middlewares/Third_Party/RealThread_RTOS_RT-Thread/src/thread.c **** RTM_EXPORT(rt_thread_control);
 634:Middlewares/Third_Party/RealThread_RTOS_RT-Thread/src/thread.c **** 
 635:Middlewares/Third_Party/RealThread_RTOS_RT-Thread/src/thread.c **** /**
 636:Middlewares/Third_Party/RealThread_RTOS_RT-Thread/src/thread.c ****  * This function will suspend the specified thread.
 637:Middlewares/Third_Party/RealThread_RTOS_RT-Thread/src/thread.c ****  *
 638:Middlewares/Third_Party/RealThread_RTOS_RT-Thread/src/thread.c ****  * @param thread the thread to be suspended
 639:Middlewares/Third_Party/RealThread_RTOS_RT-Thread/src/thread.c ****  *
 640:Middlewares/Third_Party/RealThread_RTOS_RT-Thread/src/thread.c ****  * @return the operation status, RT_EOK on OK, -RT_ERROR on error
 641:Middlewares/Third_Party/RealThread_RTOS_RT-Thread/src/thread.c ****  *
 642:Middlewares/Third_Party/RealThread_RTOS_RT-Thread/src/thread.c ****  * @note if suspend self thread, after this function call, the
 643:Middlewares/Third_Party/RealThread_RTOS_RT-Thread/src/thread.c ****  * rt_schedule() must be invoked.
 644:Middlewares/Third_Party/RealThread_RTOS_RT-Thread/src/thread.c ****  */
 645:Middlewares/Third_Party/RealThread_RTOS_RT-Thread/src/thread.c **** rt_err_t rt_thread_suspend(rt_thread_t thread)
 646:Middlewares/Third_Party/RealThread_RTOS_RT-Thread/src/thread.c **** {
 647:Middlewares/Third_Party/RealThread_RTOS_RT-Thread/src/thread.c ****     register rt_base_t temp;
 648:Middlewares/Third_Party/RealThread_RTOS_RT-Thread/src/thread.c **** 
 649:Middlewares/Third_Party/RealThread_RTOS_RT-Thread/src/thread.c ****     /* thread check */
 650:Middlewares/Third_Party/RealThread_RTOS_RT-Thread/src/thread.c ****     RT_ASSERT(thread != RT_NULL);
 651:Middlewares/Third_Party/RealThread_RTOS_RT-Thread/src/thread.c ****     RT_ASSERT(rt_object_get_type((rt_object_t)thread) == RT_Object_Class_Thread);
 652:Middlewares/Third_Party/RealThread_RTOS_RT-Thread/src/thread.c **** 
 653:Middlewares/Third_Party/RealThread_RTOS_RT-Thread/src/thread.c ****     RT_DEBUG_LOG(RT_DEBUG_THREAD, ("thread suspend:  %s\n", thread->name));
 654:Middlewares/Third_Party/RealThread_RTOS_RT-Thread/src/thread.c **** 
 655:Middlewares/Third_Party/RealThread_RTOS_RT-Thread/src/thread.c ****     if ((thread->stat & RT_THREAD_STAT_MASK) != RT_THREAD_READY)
 656:Middlewares/Third_Party/RealThread_RTOS_RT-Thread/src/thread.c ****     {
 657:Middlewares/Third_Party/RealThread_RTOS_RT-Thread/src/thread.c ****         RT_DEBUG_LOG(RT_DEBUG_THREAD, ("thread suspend: thread disorder, 0x%2x\n",
 658:Middlewares/Third_Party/RealThread_RTOS_RT-Thread/src/thread.c ****                                        thread->stat));
 659:Middlewares/Third_Party/RealThread_RTOS_RT-Thread/src/thread.c **** 
 660:Middlewares/Third_Party/RealThread_RTOS_RT-Thread/src/thread.c ****         return -RT_ERROR;
 661:Middlewares/Third_Party/RealThread_RTOS_RT-Thread/src/thread.c ****     }
 662:Middlewares/Third_Party/RealThread_RTOS_RT-Thread/src/thread.c **** 
 663:Middlewares/Third_Party/RealThread_RTOS_RT-Thread/src/thread.c ****     /* disable interrupt */
 664:Middlewares/Third_Party/RealThread_RTOS_RT-Thread/src/thread.c ****     temp = rt_hw_interrupt_disable();
 665:Middlewares/Third_Party/RealThread_RTOS_RT-Thread/src/thread.c **** 
 666:Middlewares/Third_Party/RealThread_RTOS_RT-Thread/src/thread.c ****     /* change thread stat */
 667:Middlewares/Third_Party/RealThread_RTOS_RT-Thread/src/thread.c ****     thread->stat = RT_THREAD_SUSPEND | (thread->stat & ~RT_THREAD_STAT_MASK);
 668:Middlewares/Third_Party/RealThread_RTOS_RT-Thread/src/thread.c ****     rt_schedule_remove_thread(thread);
 669:Middlewares/Third_Party/RealThread_RTOS_RT-Thread/src/thread.c **** 
 670:Middlewares/Third_Party/RealThread_RTOS_RT-Thread/src/thread.c ****     /* stop thread timer anyway */
 671:Middlewares/Third_Party/RealThread_RTOS_RT-Thread/src/thread.c ****     rt_timer_stop(&(thread->thread_timer));
 672:Middlewares/Third_Party/RealThread_RTOS_RT-Thread/src/thread.c **** 
 673:Middlewares/Third_Party/RealThread_RTOS_RT-Thread/src/thread.c ****     /* enable interrupt */
 674:Middlewares/Third_Party/RealThread_RTOS_RT-Thread/src/thread.c ****     rt_hw_interrupt_enable(temp);
 675:Middlewares/Third_Party/RealThread_RTOS_RT-Thread/src/thread.c **** 
ARM GAS  C:\Users\GKQ\AppData\Local\Temp\ccA2Fcx9.s 			page 19


 676:Middlewares/Third_Party/RealThread_RTOS_RT-Thread/src/thread.c ****     RT_OBJECT_HOOK_CALL(rt_thread_suspend_hook, (thread));
 677:Middlewares/Third_Party/RealThread_RTOS_RT-Thread/src/thread.c ****     return RT_EOK;
 678:Middlewares/Third_Party/RealThread_RTOS_RT-Thread/src/thread.c **** }
 679:Middlewares/Third_Party/RealThread_RTOS_RT-Thread/src/thread.c **** RTM_EXPORT(rt_thread_suspend);
 680:Middlewares/Third_Party/RealThread_RTOS_RT-Thread/src/thread.c **** 
 681:Middlewares/Third_Party/RealThread_RTOS_RT-Thread/src/thread.c **** /**
 682:Middlewares/Third_Party/RealThread_RTOS_RT-Thread/src/thread.c ****  * This function will resume a thread and put it to system ready queue.
 683:Middlewares/Third_Party/RealThread_RTOS_RT-Thread/src/thread.c ****  *
 684:Middlewares/Third_Party/RealThread_RTOS_RT-Thread/src/thread.c ****  * @param thread the thread to be resumed
 685:Middlewares/Third_Party/RealThread_RTOS_RT-Thread/src/thread.c ****  *
 686:Middlewares/Third_Party/RealThread_RTOS_RT-Thread/src/thread.c ****  * @return the operation status, RT_EOK on OK, -RT_ERROR on error
 687:Middlewares/Third_Party/RealThread_RTOS_RT-Thread/src/thread.c ****  */
 688:Middlewares/Third_Party/RealThread_RTOS_RT-Thread/src/thread.c **** rt_err_t rt_thread_resume(rt_thread_t thread)
 689:Middlewares/Third_Party/RealThread_RTOS_RT-Thread/src/thread.c **** {
 690:Middlewares/Third_Party/RealThread_RTOS_RT-Thread/src/thread.c ****     register rt_base_t temp;
 691:Middlewares/Third_Party/RealThread_RTOS_RT-Thread/src/thread.c **** 
 692:Middlewares/Third_Party/RealThread_RTOS_RT-Thread/src/thread.c ****     /* thread check */
 693:Middlewares/Third_Party/RealThread_RTOS_RT-Thread/src/thread.c ****     RT_ASSERT(thread != RT_NULL);
 694:Middlewares/Third_Party/RealThread_RTOS_RT-Thread/src/thread.c ****     RT_ASSERT(rt_object_get_type((rt_object_t)thread) == RT_Object_Class_Thread);
 695:Middlewares/Third_Party/RealThread_RTOS_RT-Thread/src/thread.c **** 
 696:Middlewares/Third_Party/RealThread_RTOS_RT-Thread/src/thread.c ****     RT_DEBUG_LOG(RT_DEBUG_THREAD, ("thread resume:  %s\n", thread->name));
 697:Middlewares/Third_Party/RealThread_RTOS_RT-Thread/src/thread.c **** 
 698:Middlewares/Third_Party/RealThread_RTOS_RT-Thread/src/thread.c ****     if ((thread->stat & RT_THREAD_STAT_MASK) != RT_THREAD_SUSPEND)
 699:Middlewares/Third_Party/RealThread_RTOS_RT-Thread/src/thread.c ****     {
 700:Middlewares/Third_Party/RealThread_RTOS_RT-Thread/src/thread.c ****         RT_DEBUG_LOG(RT_DEBUG_THREAD, ("thread resume: thread disorder, %d\n",
 701:Middlewares/Third_Party/RealThread_RTOS_RT-Thread/src/thread.c ****                                        thread->stat));
 702:Middlewares/Third_Party/RealThread_RTOS_RT-Thread/src/thread.c **** 
 703:Middlewares/Third_Party/RealThread_RTOS_RT-Thread/src/thread.c ****         return -RT_ERROR;
 704:Middlewares/Third_Party/RealThread_RTOS_RT-Thread/src/thread.c ****     }
 705:Middlewares/Third_Party/RealThread_RTOS_RT-Thread/src/thread.c **** 
 706:Middlewares/Third_Party/RealThread_RTOS_RT-Thread/src/thread.c ****     /* disable interrupt */
 707:Middlewares/Third_Party/RealThread_RTOS_RT-Thread/src/thread.c ****     temp = rt_hw_interrupt_disable();
 708:Middlewares/Third_Party/RealThread_RTOS_RT-Thread/src/thread.c **** 
 709:Middlewares/Third_Party/RealThread_RTOS_RT-Thread/src/thread.c ****     /* remove from suspend list */
 710:Middlewares/Third_Party/RealThread_RTOS_RT-Thread/src/thread.c ****     rt_list_remove(&(thread->tlist));
 711:Middlewares/Third_Party/RealThread_RTOS_RT-Thread/src/thread.c **** 
 712:Middlewares/Third_Party/RealThread_RTOS_RT-Thread/src/thread.c ****     rt_timer_stop(&thread->thread_timer);
 713:Middlewares/Third_Party/RealThread_RTOS_RT-Thread/src/thread.c **** 
 714:Middlewares/Third_Party/RealThread_RTOS_RT-Thread/src/thread.c ****     /* enable interrupt */
 715:Middlewares/Third_Party/RealThread_RTOS_RT-Thread/src/thread.c ****     rt_hw_interrupt_enable(temp);
 716:Middlewares/Third_Party/RealThread_RTOS_RT-Thread/src/thread.c **** 
 717:Middlewares/Third_Party/RealThread_RTOS_RT-Thread/src/thread.c ****     /* insert to schedule ready list */
 718:Middlewares/Third_Party/RealThread_RTOS_RT-Thread/src/thread.c ****     rt_schedule_insert_thread(thread);
 719:Middlewares/Third_Party/RealThread_RTOS_RT-Thread/src/thread.c **** 
 720:Middlewares/Third_Party/RealThread_RTOS_RT-Thread/src/thread.c ****     RT_OBJECT_HOOK_CALL(rt_thread_resume_hook, (thread));
 721:Middlewares/Third_Party/RealThread_RTOS_RT-Thread/src/thread.c ****     return RT_EOK;
 722:Middlewares/Third_Party/RealThread_RTOS_RT-Thread/src/thread.c **** }
 723:Middlewares/Third_Party/RealThread_RTOS_RT-Thread/src/thread.c **** RTM_EXPORT(rt_thread_resume);
 724:Middlewares/Third_Party/RealThread_RTOS_RT-Thread/src/thread.c **** 
 725:Middlewares/Third_Party/RealThread_RTOS_RT-Thread/src/thread.c **** /**
 726:Middlewares/Third_Party/RealThread_RTOS_RT-Thread/src/thread.c ****  * This function is the timeout function for thread, normally which is invoked
 727:Middlewares/Third_Party/RealThread_RTOS_RT-Thread/src/thread.c ****  * when thread is timeout to wait some resource.
 728:Middlewares/Third_Party/RealThread_RTOS_RT-Thread/src/thread.c ****  *
 729:Middlewares/Third_Party/RealThread_RTOS_RT-Thread/src/thread.c ****  * @param parameter the parameter of thread timeout function
 730:Middlewares/Third_Party/RealThread_RTOS_RT-Thread/src/thread.c ****  */
 731:Middlewares/Third_Party/RealThread_RTOS_RT-Thread/src/thread.c **** void rt_thread_timeout(void *parameter)
 732:Middlewares/Third_Party/RealThread_RTOS_RT-Thread/src/thread.c **** {
ARM GAS  C:\Users\GKQ\AppData\Local\Temp\ccA2Fcx9.s 			page 20


 283              		.loc 1 732 1 is_stmt 1 view -0
 284              		.cfi_startproc
 285              		@ args = 0, pretend = 0, frame = 0
 286              		@ frame_needed = 0, uses_anonymous_args = 0
 287              		.loc 1 732 1 is_stmt 0 view .LVU83
 288 0000 10B5     		push	{r4, lr}
 289              	.LCFI4:
 290              		.cfi_def_cfa_offset 8
 291              		.cfi_offset 4, -8
 292              		.cfi_offset 14, -4
 733:Middlewares/Third_Party/RealThread_RTOS_RT-Thread/src/thread.c ****     struct rt_thread *thread;
 293              		.loc 1 733 5 is_stmt 1 view .LVU84
 734:Middlewares/Third_Party/RealThread_RTOS_RT-Thread/src/thread.c **** 
 735:Middlewares/Third_Party/RealThread_RTOS_RT-Thread/src/thread.c ****     thread = (struct rt_thread *)parameter;
 294              		.loc 1 735 5 view .LVU85
 295              	.LVL23:
 736:Middlewares/Third_Party/RealThread_RTOS_RT-Thread/src/thread.c **** 
 737:Middlewares/Third_Party/RealThread_RTOS_RT-Thread/src/thread.c ****     /* thread check */
 738:Middlewares/Third_Party/RealThread_RTOS_RT-Thread/src/thread.c ****     RT_ASSERT(thread != RT_NULL);
 296              		.loc 1 738 33 view .LVU86
 739:Middlewares/Third_Party/RealThread_RTOS_RT-Thread/src/thread.c ****     RT_ASSERT((thread->stat & RT_THREAD_STAT_MASK) == RT_THREAD_SUSPEND);
 297              		.loc 1 739 73 view .LVU87
 740:Middlewares/Third_Party/RealThread_RTOS_RT-Thread/src/thread.c ****     RT_ASSERT(rt_object_get_type((rt_object_t)thread) == RT_Object_Class_Thread);
 298              		.loc 1 740 81 view .LVU88
 741:Middlewares/Third_Party/RealThread_RTOS_RT-Thread/src/thread.c **** 
 742:Middlewares/Third_Party/RealThread_RTOS_RT-Thread/src/thread.c ****     /* set error number */
 743:Middlewares/Third_Party/RealThread_RTOS_RT-Thread/src/thread.c ****     thread->error = -RT_ETIMEOUT;
 299              		.loc 1 743 5 view .LVU89
 300              		.loc 1 743 19 is_stmt 0 view .LVU90
 301 0002 6FF00102 		mvn	r2, #1
 302 0006 0263     		str	r2, [r0, #48]
 744:Middlewares/Third_Party/RealThread_RTOS_RT-Thread/src/thread.c **** 
 745:Middlewares/Third_Party/RealThread_RTOS_RT-Thread/src/thread.c ****     /* remove from suspend list */
 746:Middlewares/Third_Party/RealThread_RTOS_RT-Thread/src/thread.c ****     rt_list_remove(&(thread->tlist));
 303              		.loc 1 746 5 is_stmt 1 view .LVU91
 304 0008 00F11402 		add	r2, r0, #20
 305              	.LVL24:
 306              	.LBB22:
 307              	.LBI22:
  65:Middlewares/Third_Party/RealThread_RTOS_RT-Thread/include/rtservice.h **** }
  66:Middlewares/Third_Party/RealThread_RTOS_RT-Thread/include/rtservice.h **** 
  67:Middlewares/Third_Party/RealThread_RTOS_RT-Thread/include/rtservice.h **** /**
  68:Middlewares/Third_Party/RealThread_RTOS_RT-Thread/include/rtservice.h ****  * @brief insert a node before a list
  69:Middlewares/Third_Party/RealThread_RTOS_RT-Thread/include/rtservice.h ****  *
  70:Middlewares/Third_Party/RealThread_RTOS_RT-Thread/include/rtservice.h ****  * @param n new node to be inserted
  71:Middlewares/Third_Party/RealThread_RTOS_RT-Thread/include/rtservice.h ****  * @param l list to insert it
  72:Middlewares/Third_Party/RealThread_RTOS_RT-Thread/include/rtservice.h ****  */
  73:Middlewares/Third_Party/RealThread_RTOS_RT-Thread/include/rtservice.h **** rt_inline void rt_list_insert_before(rt_list_t *l, rt_list_t *n)
  74:Middlewares/Third_Party/RealThread_RTOS_RT-Thread/include/rtservice.h **** {
  75:Middlewares/Third_Party/RealThread_RTOS_RT-Thread/include/rtservice.h ****     l->prev->next = n;
  76:Middlewares/Third_Party/RealThread_RTOS_RT-Thread/include/rtservice.h ****     n->prev = l->prev;
  77:Middlewares/Third_Party/RealThread_RTOS_RT-Thread/include/rtservice.h **** 
  78:Middlewares/Third_Party/RealThread_RTOS_RT-Thread/include/rtservice.h ****     l->prev = n;
  79:Middlewares/Third_Party/RealThread_RTOS_RT-Thread/include/rtservice.h ****     n->next = l;
  80:Middlewares/Third_Party/RealThread_RTOS_RT-Thread/include/rtservice.h **** }
  81:Middlewares/Third_Party/RealThread_RTOS_RT-Thread/include/rtservice.h **** 
  82:Middlewares/Third_Party/RealThread_RTOS_RT-Thread/include/rtservice.h **** /**
ARM GAS  C:\Users\GKQ\AppData\Local\Temp\ccA2Fcx9.s 			page 21


  83:Middlewares/Third_Party/RealThread_RTOS_RT-Thread/include/rtservice.h ****  * @brief remove node from list.
  84:Middlewares/Third_Party/RealThread_RTOS_RT-Thread/include/rtservice.h ****  * @param n the node to remove from the list.
  85:Middlewares/Third_Party/RealThread_RTOS_RT-Thread/include/rtservice.h ****  */
  86:Middlewares/Third_Party/RealThread_RTOS_RT-Thread/include/rtservice.h **** rt_inline void rt_list_remove(rt_list_t *n)
 308              		.loc 2 86 16 view .LVU92
 309              	.LBB23:
  87:Middlewares/Third_Party/RealThread_RTOS_RT-Thread/include/rtservice.h **** {
  88:Middlewares/Third_Party/RealThread_RTOS_RT-Thread/include/rtservice.h ****     n->next->prev = n->prev;
 310              		.loc 2 88 5 view .LVU93
 311              		.loc 2 88 6 is_stmt 0 view .LVU94
 312 000c 4469     		ldr	r4, [r0, #20]
 313              		.loc 2 88 22 view .LVU95
 314 000e 8169     		ldr	r1, [r0, #24]
 315              		.loc 2 88 19 view .LVU96
 316 0010 6160     		str	r1, [r4, #4]
  89:Middlewares/Third_Party/RealThread_RTOS_RT-Thread/include/rtservice.h ****     n->prev->next = n->next;
 317              		.loc 2 89 5 is_stmt 1 view .LVU97
 318              		.loc 2 89 22 is_stmt 0 view .LVU98
 319 0012 4469     		ldr	r4, [r0, #20]
 320              		.loc 2 89 19 view .LVU99
 321 0014 0C60     		str	r4, [r1]
  90:Middlewares/Third_Party/RealThread_RTOS_RT-Thread/include/rtservice.h **** 
  91:Middlewares/Third_Party/RealThread_RTOS_RT-Thread/include/rtservice.h ****     n->next = n->prev = n;
 322              		.loc 2 91 5 is_stmt 1 view .LVU100
 323              		.loc 2 91 23 is_stmt 0 view .LVU101
 324 0016 8261     		str	r2, [r0, #24]
 325              		.loc 2 91 13 view .LVU102
 326 0018 4261     		str	r2, [r0, #20]
 327              	.LVL25:
 328              		.loc 2 91 13 view .LVU103
 329              	.LBE23:
 330              	.LBE22:
 747:Middlewares/Third_Party/RealThread_RTOS_RT-Thread/src/thread.c **** 
 748:Middlewares/Third_Party/RealThread_RTOS_RT-Thread/src/thread.c ****     /* insert to schedule ready list */
 749:Middlewares/Third_Party/RealThread_RTOS_RT-Thread/src/thread.c ****     rt_schedule_insert_thread(thread);
 331              		.loc 1 749 5 is_stmt 1 view .LVU104
 332 001a FFF7FEFF 		bl	rt_schedule_insert_thread
 333              	.LVL26:
 750:Middlewares/Third_Party/RealThread_RTOS_RT-Thread/src/thread.c **** 
 751:Middlewares/Third_Party/RealThread_RTOS_RT-Thread/src/thread.c ****     /* do schedule */
 752:Middlewares/Third_Party/RealThread_RTOS_RT-Thread/src/thread.c ****     rt_schedule();
 334              		.loc 1 752 5 view .LVU105
 335 001e FFF7FEFF 		bl	rt_schedule
 336              	.LVL27:
 753:Middlewares/Third_Party/RealThread_RTOS_RT-Thread/src/thread.c **** }
 337              		.loc 1 753 1 is_stmt 0 view .LVU106
 338 0022 10BD     		pop	{r4, pc}
 339              		.cfi_endproc
 340              	.LFE30:
 342              		.section	.text.rt_thread_init,"ax",%progbits
 343              		.align	1
 344              		.global	rt_thread_init
 345              		.syntax unified
 346              		.thumb
 347              		.thumb_func
 348              		.fpu softvfp
 350              	rt_thread_init:
ARM GAS  C:\Users\GKQ\AppData\Local\Temp\ccA2Fcx9.s 			page 22


 351              	.LVL28:
 352              	.LFB17:
 228:Middlewares/Third_Party/RealThread_RTOS_RT-Thread/src/thread.c ****     /* thread check */
 353              		.loc 1 228 1 is_stmt 1 view -0
 354              		.cfi_startproc
 355              		@ args = 16, pretend = 0, frame = 0
 356              		@ frame_needed = 0, uses_anonymous_args = 0
 228:Middlewares/Third_Party/RealThread_RTOS_RT-Thread/src/thread.c ****     /* thread check */
 357              		.loc 1 228 1 is_stmt 0 view .LVU108
 358 0000 F0B5     		push	{r4, r5, r6, r7, lr}
 359              	.LCFI5:
 360              		.cfi_def_cfa_offset 20
 361              		.cfi_offset 4, -20
 362              		.cfi_offset 5, -16
 363              		.cfi_offset 6, -12
 364              		.cfi_offset 7, -8
 365              		.cfi_offset 14, -4
 366 0002 85B0     		sub	sp, sp, #20
 367              	.LCFI6:
 368              		.cfi_def_cfa_offset 40
 369 0004 0546     		mov	r5, r0
 370 0006 0C46     		mov	r4, r1
 371 0008 1646     		mov	r6, r2
 372 000a 1F46     		mov	r7, r3
 230:Middlewares/Third_Party/RealThread_RTOS_RT-Thread/src/thread.c ****     RT_ASSERT(stack_start != RT_NULL);
 373              		.loc 1 230 33 is_stmt 1 view .LVU109
 231:Middlewares/Third_Party/RealThread_RTOS_RT-Thread/src/thread.c **** 
 374              		.loc 1 231 38 view .LVU110
 234:Middlewares/Third_Party/RealThread_RTOS_RT-Thread/src/thread.c **** 
 375              		.loc 1 234 5 view .LVU111
 376 000c 0A46     		mov	r2, r1
 377              	.LVL29:
 234:Middlewares/Third_Party/RealThread_RTOS_RT-Thread/src/thread.c **** 
 378              		.loc 1 234 5 is_stmt 0 view .LVU112
 379 000e 0121     		movs	r1, #1
 380              	.LVL30:
 234:Middlewares/Third_Party/RealThread_RTOS_RT-Thread/src/thread.c **** 
 381              		.loc 1 234 5 view .LVU113
 382 0010 FFF7FEFF 		bl	rt_object_init
 383              	.LVL31:
 236:Middlewares/Third_Party/RealThread_RTOS_RT-Thread/src/thread.c ****                            name,
 384              		.loc 1 236 5 is_stmt 1 view .LVU114
 236:Middlewares/Third_Party/RealThread_RTOS_RT-Thread/src/thread.c ****                            name,
 385              		.loc 1 236 12 is_stmt 0 view .LVU115
 386 0014 0D9B     		ldr	r3, [sp, #52]
 387 0016 0393     		str	r3, [sp, #12]
 388 0018 9DF83030 		ldrb	r3, [sp, #48]	@ zero_extendqisi2
 389 001c 0293     		str	r3, [sp, #8]
 390 001e 0B9B     		ldr	r3, [sp, #44]
 391 0020 0193     		str	r3, [sp, #4]
 392 0022 0A9B     		ldr	r3, [sp, #40]
 393 0024 0093     		str	r3, [sp]
 394 0026 3B46     		mov	r3, r7
 395 0028 3246     		mov	r2, r6
 396 002a 2146     		mov	r1, r4
 397 002c 2846     		mov	r0, r5
 398 002e FFF7FEFF 		bl	_rt_thread_init
ARM GAS  C:\Users\GKQ\AppData\Local\Temp\ccA2Fcx9.s 			page 23


 399              	.LVL32:
 244:Middlewares/Third_Party/RealThread_RTOS_RT-Thread/src/thread.c **** RTM_EXPORT(rt_thread_init);
 400              		.loc 1 244 1 view .LVU116
 401 0032 05B0     		add	sp, sp, #20
 402              	.LCFI7:
 403              		.cfi_def_cfa_offset 20
 404              		@ sp needed
 405 0034 F0BD     		pop	{r4, r5, r6, r7, pc}
 244:Middlewares/Third_Party/RealThread_RTOS_RT-Thread/src/thread.c **** RTM_EXPORT(rt_thread_init);
 406              		.loc 1 244 1 view .LVU117
 407              		.cfi_endproc
 408              	.LFE17:
 410              		.section	.text.rt_thread_self,"ax",%progbits
 411              		.align	1
 412              		.global	rt_thread_self
 413              		.syntax unified
 414              		.thumb
 415              		.thumb_func
 416              		.fpu softvfp
 418              	rt_thread_self:
 419              	.LFB18:
 253:Middlewares/Third_Party/RealThread_RTOS_RT-Thread/src/thread.c ****     return rt_current_thread;
 420              		.loc 1 253 1 is_stmt 1 view -0
 421              		.cfi_startproc
 422              		@ args = 0, pretend = 0, frame = 0
 423              		@ frame_needed = 0, uses_anonymous_args = 0
 424              		@ link register save eliminated.
 254:Middlewares/Third_Party/RealThread_RTOS_RT-Thread/src/thread.c **** }
 425              		.loc 1 254 5 view .LVU119
 255:Middlewares/Third_Party/RealThread_RTOS_RT-Thread/src/thread.c **** RTM_EXPORT(rt_thread_self);
 426              		.loc 1 255 1 is_stmt 0 view .LVU120
 427 0000 014B     		ldr	r3, .L17
 428 0002 1868     		ldr	r0, [r3]
 429 0004 7047     		bx	lr
 430              	.L18:
 431 0006 00BF     		.align	2
 432              	.L17:
 433 0008 00000000 		.word	rt_current_thread
 434              		.cfi_endproc
 435              	.LFE18:
 437              		.section	.text.rt_thread_detach,"ax",%progbits
 438              		.align	1
 439              		.global	rt_thread_detach
 440              		.syntax unified
 441              		.thumb
 442              		.thumb_func
 443              		.fpu softvfp
 445              	rt_thread_detach:
 446              	.LVL33:
 447              	.LFB20:
 309:Middlewares/Third_Party/RealThread_RTOS_RT-Thread/src/thread.c ****     rt_base_t lock;
 448              		.loc 1 309 1 is_stmt 1 view -0
 449              		.cfi_startproc
 450              		@ args = 0, pretend = 0, frame = 0
 451              		@ frame_needed = 0, uses_anonymous_args = 0
 309:Middlewares/Third_Party/RealThread_RTOS_RT-Thread/src/thread.c ****     rt_base_t lock;
 452              		.loc 1 309 1 is_stmt 0 view .LVU122
ARM GAS  C:\Users\GKQ\AppData\Local\Temp\ccA2Fcx9.s 			page 24


 453 0000 10B5     		push	{r4, lr}
 454              	.LCFI8:
 455              		.cfi_def_cfa_offset 8
 456              		.cfi_offset 4, -8
 457              		.cfi_offset 14, -4
 458 0002 0446     		mov	r4, r0
 310:Middlewares/Third_Party/RealThread_RTOS_RT-Thread/src/thread.c **** 
 459              		.loc 1 310 5 is_stmt 1 view .LVU123
 313:Middlewares/Third_Party/RealThread_RTOS_RT-Thread/src/thread.c ****     RT_ASSERT(rt_object_get_type((rt_object_t)thread) == RT_Object_Class_Thread);
 460              		.loc 1 313 33 view .LVU124
 314:Middlewares/Third_Party/RealThread_RTOS_RT-Thread/src/thread.c ****     RT_ASSERT(rt_object_is_systemobject((rt_object_t)thread));
 461              		.loc 1 314 81 view .LVU125
 315:Middlewares/Third_Party/RealThread_RTOS_RT-Thread/src/thread.c **** 
 462              		.loc 1 315 62 view .LVU126
 317:Middlewares/Third_Party/RealThread_RTOS_RT-Thread/src/thread.c ****     {
 463              		.loc 1 317 5 view .LVU127
 317:Middlewares/Third_Party/RealThread_RTOS_RT-Thread/src/thread.c ****     {
 464              		.loc 1 317 16 is_stmt 0 view .LVU128
 465 0004 90F83430 		ldrb	r3, [r0, #52]	@ zero_extendqisi2
 317:Middlewares/Third_Party/RealThread_RTOS_RT-Thread/src/thread.c ****     {
 466              		.loc 1 317 8 view .LVU129
 467 0008 13F00F0F 		tst	r3, #15
 468 000c 1BD1     		bne	.L24
 469              	.LVL34:
 470              	.L20:
 324:Middlewares/Third_Party/RealThread_RTOS_RT-Thread/src/thread.c **** 
 471              		.loc 1 324 5 is_stmt 1 view .LVU130
 472 000e 04F14400 		add	r0, r4, #68
 473 0012 FFF7FEFF 		bl	rt_timer_detach
 474              	.LVL35:
 327:Middlewares/Third_Party/RealThread_RTOS_RT-Thread/src/thread.c **** 
 475              		.loc 1 327 5 view .LVU131
 327:Middlewares/Third_Party/RealThread_RTOS_RT-Thread/src/thread.c **** 
 476              		.loc 1 327 18 is_stmt 0 view .LVU132
 477 0016 0423     		movs	r3, #4
 478 0018 84F83430 		strb	r3, [r4, #52]
 329:Middlewares/Third_Party/RealThread_RTOS_RT-Thread/src/thread.c ****         thread->cleanup == RT_NULL)
 479              		.loc 1 329 5 is_stmt 1 view .LVU133
 329:Middlewares/Third_Party/RealThread_RTOS_RT-Thread/src/thread.c ****         thread->cleanup == RT_NULL)
 480              		.loc 1 329 10 is_stmt 0 view .LVU134
 481 001c 2046     		mov	r0, r4
 482 001e FFF7FEFF 		bl	rt_object_is_systemobject
 483              	.LVL36:
 329:Middlewares/Third_Party/RealThread_RTOS_RT-Thread/src/thread.c ****         thread->cleanup == RT_NULL)
 484              		.loc 1 329 8 view .LVU135
 485 0022 0128     		cmp	r0, #1
 486 0024 01D1     		bne	.L21
 330:Middlewares/Third_Party/RealThread_RTOS_RT-Thread/src/thread.c ****     {
 487              		.loc 1 330 15 discriminator 1 view .LVU136
 488 0026 236F     		ldr	r3, [r4, #112]
 329:Middlewares/Third_Party/RealThread_RTOS_RT-Thread/src/thread.c ****         thread->cleanup == RT_NULL)
 489              		.loc 1 329 69 discriminator 1 view .LVU137
 490 0028 83B1     		cbz	r3, .L25
 491              	.L21:
 337:Middlewares/Third_Party/RealThread_RTOS_RT-Thread/src/thread.c ****         /* insert to defunct thread list */
 492              		.loc 1 337 9 is_stmt 1 view .LVU138
 337:Middlewares/Third_Party/RealThread_RTOS_RT-Thread/src/thread.c ****         /* insert to defunct thread list */
ARM GAS  C:\Users\GKQ\AppData\Local\Temp\ccA2Fcx9.s 			page 25


 493              		.loc 1 337 16 is_stmt 0 view .LVU139
 494 002a FFF7FEFF 		bl	rt_hw_interrupt_disable
 495              	.LVL37:
 339:Middlewares/Third_Party/RealThread_RTOS_RT-Thread/src/thread.c ****         /* enable interrupt */
 496              		.loc 1 339 9 is_stmt 1 view .LVU140
 497 002e 04F11402 		add	r2, r4, #20
 498              	.LVL38:
 499              	.LBB24:
 500              	.LBI24:
  58:Middlewares/Third_Party/RealThread_RTOS_RT-Thread/include/rtservice.h **** {
 501              		.loc 2 58 16 view .LVU141
 502              	.LBB25:
  60:Middlewares/Third_Party/RealThread_RTOS_RT-Thread/include/rtservice.h ****     n->next = l->next;
 503              		.loc 2 60 5 view .LVU142
  60:Middlewares/Third_Party/RealThread_RTOS_RT-Thread/include/rtservice.h ****     n->next = l->next;
 504              		.loc 2 60 6 is_stmt 0 view .LVU143
 505 0032 084B     		ldr	r3, .L26
 506 0034 1968     		ldr	r1, [r3]
  60:Middlewares/Third_Party/RealThread_RTOS_RT-Thread/include/rtservice.h ****     n->next = l->next;
 507              		.loc 2 60 19 view .LVU144
 508 0036 4A60     		str	r2, [r1, #4]
  61:Middlewares/Third_Party/RealThread_RTOS_RT-Thread/include/rtservice.h **** 
 509              		.loc 2 61 5 is_stmt 1 view .LVU145
  61:Middlewares/Third_Party/RealThread_RTOS_RT-Thread/include/rtservice.h **** 
 510              		.loc 2 61 13 is_stmt 0 view .LVU146
 511 0038 6161     		str	r1, [r4, #20]
  63:Middlewares/Third_Party/RealThread_RTOS_RT-Thread/include/rtservice.h ****     n->prev = l;
 512              		.loc 2 63 5 is_stmt 1 view .LVU147
  63:Middlewares/Third_Party/RealThread_RTOS_RT-Thread/include/rtservice.h ****     n->prev = l;
 513              		.loc 2 63 13 is_stmt 0 view .LVU148
 514 003a 1A60     		str	r2, [r3]
  64:Middlewares/Third_Party/RealThread_RTOS_RT-Thread/include/rtservice.h **** }
 515              		.loc 2 64 5 is_stmt 1 view .LVU149
  64:Middlewares/Third_Party/RealThread_RTOS_RT-Thread/include/rtservice.h **** }
 516              		.loc 2 64 13 is_stmt 0 view .LVU150
 517 003c A361     		str	r3, [r4, #24]
 518              	.LVL39:
  64:Middlewares/Third_Party/RealThread_RTOS_RT-Thread/include/rtservice.h **** }
 519              		.loc 2 64 13 view .LVU151
 520              	.LBE25:
 521              	.LBE24:
 341:Middlewares/Third_Party/RealThread_RTOS_RT-Thread/src/thread.c ****     }
 522              		.loc 1 341 9 is_stmt 1 view .LVU152
 523 003e FFF7FEFF 		bl	rt_hw_interrupt_enable
 524              	.LVL40:
 525              	.L22:
 344:Middlewares/Third_Party/RealThread_RTOS_RT-Thread/src/thread.c **** }
 526              		.loc 1 344 5 view .LVU153
 345:Middlewares/Third_Party/RealThread_RTOS_RT-Thread/src/thread.c **** RTM_EXPORT(rt_thread_detach);
 527              		.loc 1 345 1 is_stmt 0 view .LVU154
 528 0042 0020     		movs	r0, #0
 529 0044 10BD     		pop	{r4, pc}
 530              	.LVL41:
 531              	.L24:
 320:Middlewares/Third_Party/RealThread_RTOS_RT-Thread/src/thread.c ****     }
 532              		.loc 1 320 9 is_stmt 1 view .LVU155
 533 0046 FFF7FEFF 		bl	rt_schedule_remove_thread
ARM GAS  C:\Users\GKQ\AppData\Local\Temp\ccA2Fcx9.s 			page 26


 534              	.LVL42:
 320:Middlewares/Third_Party/RealThread_RTOS_RT-Thread/src/thread.c ****     }
 535              		.loc 1 320 9 is_stmt 0 view .LVU156
 536 004a E0E7     		b	.L20
 537              	.L25:
 332:Middlewares/Third_Party/RealThread_RTOS_RT-Thread/src/thread.c ****     }
 538              		.loc 1 332 9 is_stmt 1 view .LVU157
 539 004c 2046     		mov	r0, r4
 540 004e FFF7FEFF 		bl	rt_object_detach
 541              	.LVL43:
 542 0052 F6E7     		b	.L22
 543              	.L27:
 544              		.align	2
 545              	.L26:
 546 0054 00000000 		.word	rt_thread_defunct
 547              		.cfi_endproc
 548              	.LFE20:
 550              		.section	.text.rt_thread_create,"ax",%progbits
 551              		.align	1
 552              		.global	rt_thread_create
 553              		.syntax unified
 554              		.thumb
 555              		.thumb_func
 556              		.fpu softvfp
 558              	rt_thread_create:
 559              	.LVL44:
 560              	.LFB21:
 368:Middlewares/Third_Party/RealThread_RTOS_RT-Thread/src/thread.c ****     struct rt_thread *thread;
 561              		.loc 1 368 1 view -0
 562              		.cfi_startproc
 563              		@ args = 8, pretend = 0, frame = 0
 564              		@ frame_needed = 0, uses_anonymous_args = 0
 368:Middlewares/Third_Party/RealThread_RTOS_RT-Thread/src/thread.c ****     struct rt_thread *thread;
 565              		.loc 1 368 1 is_stmt 0 view .LVU159
 566 0000 2DE9F043 		push	{r4, r5, r6, r7, r8, r9, lr}
 567              	.LCFI9:
 568              		.cfi_def_cfa_offset 28
 569              		.cfi_offset 4, -28
 570              		.cfi_offset 5, -24
 571              		.cfi_offset 6, -20
 572              		.cfi_offset 7, -16
 573              		.cfi_offset 8, -12
 574              		.cfi_offset 9, -8
 575              		.cfi_offset 14, -4
 576 0004 85B0     		sub	sp, sp, #20
 577              	.LCFI10:
 578              		.cfi_def_cfa_offset 48
 579 0006 0446     		mov	r4, r0
 580 0008 0F46     		mov	r7, r1
 581 000a 9046     		mov	r8, r2
 582 000c 1D46     		mov	r5, r3
 369:Middlewares/Third_Party/RealThread_RTOS_RT-Thread/src/thread.c ****     void *stack_start;
 583              		.loc 1 369 5 is_stmt 1 view .LVU160
 370:Middlewares/Third_Party/RealThread_RTOS_RT-Thread/src/thread.c **** 
 584              		.loc 1 370 5 view .LVU161
 372:Middlewares/Third_Party/RealThread_RTOS_RT-Thread/src/thread.c ****                                                     name);
 585              		.loc 1 372 5 view .LVU162
ARM GAS  C:\Users\GKQ\AppData\Local\Temp\ccA2Fcx9.s 			page 27


 372:Middlewares/Third_Party/RealThread_RTOS_RT-Thread/src/thread.c ****                                                     name);
 586              		.loc 1 372 34 is_stmt 0 view .LVU163
 587 000e 0146     		mov	r1, r0
 588              	.LVL45:
 372:Middlewares/Third_Party/RealThread_RTOS_RT-Thread/src/thread.c ****                                                     name);
 589              		.loc 1 372 34 view .LVU164
 590 0010 0120     		movs	r0, #1
 591              	.LVL46:
 372:Middlewares/Third_Party/RealThread_RTOS_RT-Thread/src/thread.c ****                                                     name);
 592              		.loc 1 372 34 view .LVU165
 593 0012 FFF7FEFF 		bl	rt_object_allocate
 594              	.LVL47:
 374:Middlewares/Third_Party/RealThread_RTOS_RT-Thread/src/thread.c ****         return RT_NULL;
 595              		.loc 1 374 5 is_stmt 1 view .LVU166
 374:Middlewares/Third_Party/RealThread_RTOS_RT-Thread/src/thread.c ****         return RT_NULL;
 596              		.loc 1 374 8 is_stmt 0 view .LVU167
 597 0016 0646     		mov	r6, r0
 598 0018 88B1     		cbz	r0, .L28
 377:Middlewares/Third_Party/RealThread_RTOS_RT-Thread/src/thread.c ****     if (stack_start == RT_NULL)
 599              		.loc 1 377 5 is_stmt 1 view .LVU168
 377:Middlewares/Third_Party/RealThread_RTOS_RT-Thread/src/thread.c ****     if (stack_start == RT_NULL)
 600              		.loc 1 377 19 is_stmt 0 view .LVU169
 601 001a 2846     		mov	r0, r5
 602              	.LVL48:
 377:Middlewares/Third_Party/RealThread_RTOS_RT-Thread/src/thread.c ****     if (stack_start == RT_NULL)
 603              		.loc 1 377 19 view .LVU170
 604 001c FFF7FEFF 		bl	rt_malloc
 605              	.LVL49:
 378:Middlewares/Third_Party/RealThread_RTOS_RT-Thread/src/thread.c ****     {
 606              		.loc 1 378 5 is_stmt 1 view .LVU171
 378:Middlewares/Third_Party/RealThread_RTOS_RT-Thread/src/thread.c ****     {
 607              		.loc 1 378 8 is_stmt 0 view .LVU172
 608 0020 8146     		mov	r9, r0
 609 0022 80B1     		cbz	r0, .L32
 386:Middlewares/Third_Party/RealThread_RTOS_RT-Thread/src/thread.c ****                     name,
 610              		.loc 1 386 5 is_stmt 1 view .LVU173
 611 0024 0D9B     		ldr	r3, [sp, #52]
 612 0026 0393     		str	r3, [sp, #12]
 613 0028 9DF83030 		ldrb	r3, [sp, #48]	@ zero_extendqisi2
 614 002c 0293     		str	r3, [sp, #8]
 615 002e 0195     		str	r5, [sp, #4]
 616 0030 0090     		str	r0, [sp]
 617 0032 4346     		mov	r3, r8
 618 0034 3A46     		mov	r2, r7
 619 0036 2146     		mov	r1, r4
 620 0038 3046     		mov	r0, r6
 621              	.LVL50:
 386:Middlewares/Third_Party/RealThread_RTOS_RT-Thread/src/thread.c ****                     name,
 622              		.loc 1 386 5 is_stmt 0 view .LVU174
 623 003a FFF7FEFF 		bl	_rt_thread_init
 624              	.LVL51:
 395:Middlewares/Third_Party/RealThread_RTOS_RT-Thread/src/thread.c **** }
 625              		.loc 1 395 5 is_stmt 1 view .LVU175
 626              	.L28:
 396:Middlewares/Third_Party/RealThread_RTOS_RT-Thread/src/thread.c **** RTM_EXPORT(rt_thread_create);
 627              		.loc 1 396 1 is_stmt 0 view .LVU176
 628 003e 3046     		mov	r0, r6
ARM GAS  C:\Users\GKQ\AppData\Local\Temp\ccA2Fcx9.s 			page 28


 629 0040 05B0     		add	sp, sp, #20
 630              	.LCFI11:
 631              		.cfi_remember_state
 632              		.cfi_def_cfa_offset 28
 633              		@ sp needed
 634 0042 BDE8F083 		pop	{r4, r5, r6, r7, r8, r9, pc}
 635              	.LVL52:
 636              	.L32:
 637              	.LCFI12:
 638              		.cfi_restore_state
 381:Middlewares/Third_Party/RealThread_RTOS_RT-Thread/src/thread.c **** 
 639              		.loc 1 381 9 is_stmt 1 view .LVU177
 640 0046 3046     		mov	r0, r6
 641              	.LVL53:
 381:Middlewares/Third_Party/RealThread_RTOS_RT-Thread/src/thread.c **** 
 642              		.loc 1 381 9 is_stmt 0 view .LVU178
 643 0048 FFF7FEFF 		bl	rt_object_delete
 644              	.LVL54:
 383:Middlewares/Third_Party/RealThread_RTOS_RT-Thread/src/thread.c ****     }
 645              		.loc 1 383 9 is_stmt 1 view .LVU179
 383:Middlewares/Third_Party/RealThread_RTOS_RT-Thread/src/thread.c ****     }
 646              		.loc 1 383 16 is_stmt 0 view .LVU180
 647 004c 4E46     		mov	r6, r9
 648              	.LVL55:
 383:Middlewares/Third_Party/RealThread_RTOS_RT-Thread/src/thread.c ****     }
 649              		.loc 1 383 16 view .LVU181
 650 004e F6E7     		b	.L28
 651              		.cfi_endproc
 652              	.LFE21:
 654              		.section	.text.rt_thread_delete,"ax",%progbits
 655              		.align	1
 656              		.global	rt_thread_delete
 657              		.syntax unified
 658              		.thumb
 659              		.thumb_func
 660              		.fpu softvfp
 662              	rt_thread_delete:
 663              	.LVL56:
 664              	.LFB22:
 408:Middlewares/Third_Party/RealThread_RTOS_RT-Thread/src/thread.c ****     rt_base_t lock;
 665              		.loc 1 408 1 is_stmt 1 view -0
 666              		.cfi_startproc
 667              		@ args = 0, pretend = 0, frame = 0
 668              		@ frame_needed = 0, uses_anonymous_args = 0
 408:Middlewares/Third_Party/RealThread_RTOS_RT-Thread/src/thread.c ****     rt_base_t lock;
 669              		.loc 1 408 1 is_stmt 0 view .LVU183
 670 0000 10B5     		push	{r4, lr}
 671              	.LCFI13:
 672              		.cfi_def_cfa_offset 8
 673              		.cfi_offset 4, -8
 674              		.cfi_offset 14, -4
 675 0002 0446     		mov	r4, r0
 409:Middlewares/Third_Party/RealThread_RTOS_RT-Thread/src/thread.c **** 
 676              		.loc 1 409 5 is_stmt 1 view .LVU184
 412:Middlewares/Third_Party/RealThread_RTOS_RT-Thread/src/thread.c ****     RT_ASSERT(rt_object_get_type((rt_object_t)thread) == RT_Object_Class_Thread);
 677              		.loc 1 412 33 view .LVU185
 413:Middlewares/Third_Party/RealThread_RTOS_RT-Thread/src/thread.c ****     RT_ASSERT(rt_object_is_systemobject((rt_object_t)thread) == RT_FALSE);
ARM GAS  C:\Users\GKQ\AppData\Local\Temp\ccA2Fcx9.s 			page 29


 678              		.loc 1 413 81 view .LVU186
 414:Middlewares/Third_Party/RealThread_RTOS_RT-Thread/src/thread.c **** 
 679              		.loc 1 414 74 view .LVU187
 416:Middlewares/Third_Party/RealThread_RTOS_RT-Thread/src/thread.c ****     {
 680              		.loc 1 416 5 view .LVU188
 416:Middlewares/Third_Party/RealThread_RTOS_RT-Thread/src/thread.c ****     {
 681              		.loc 1 416 16 is_stmt 0 view .LVU189
 682 0004 90F83430 		ldrb	r3, [r0, #52]	@ zero_extendqisi2
 416:Middlewares/Third_Party/RealThread_RTOS_RT-Thread/src/thread.c ****     {
 683              		.loc 1 416 8 view .LVU190
 684 0008 13F00F0F 		tst	r3, #15
 685 000c 14D1     		bne	.L36
 686              	.LVL57:
 687              	.L34:
 423:Middlewares/Third_Party/RealThread_RTOS_RT-Thread/src/thread.c **** 
 688              		.loc 1 423 5 is_stmt 1 view .LVU191
 689 000e 04F14400 		add	r0, r4, #68
 690 0012 FFF7FEFF 		bl	rt_timer_detach
 691              	.LVL58:
 426:Middlewares/Third_Party/RealThread_RTOS_RT-Thread/src/thread.c **** 
 692              		.loc 1 426 5 view .LVU192
 426:Middlewares/Third_Party/RealThread_RTOS_RT-Thread/src/thread.c **** 
 693              		.loc 1 426 18 is_stmt 0 view .LVU193
 694 0016 0423     		movs	r3, #4
 695 0018 84F83430 		strb	r3, [r4, #52]
 429:Middlewares/Third_Party/RealThread_RTOS_RT-Thread/src/thread.c **** 
 696              		.loc 1 429 5 is_stmt 1 view .LVU194
 429:Middlewares/Third_Party/RealThread_RTOS_RT-Thread/src/thread.c **** 
 697              		.loc 1 429 12 is_stmt 0 view .LVU195
 698 001c FFF7FEFF 		bl	rt_hw_interrupt_disable
 699              	.LVL59:
 432:Middlewares/Third_Party/RealThread_RTOS_RT-Thread/src/thread.c **** 
 700              		.loc 1 432 5 is_stmt 1 view .LVU196
 701 0020 04F11402 		add	r2, r4, #20
 702              	.LVL60:
 703              	.LBB26:
 704              	.LBI26:
  58:Middlewares/Third_Party/RealThread_RTOS_RT-Thread/include/rtservice.h **** {
 705              		.loc 2 58 16 view .LVU197
 706              	.LBB27:
  60:Middlewares/Third_Party/RealThread_RTOS_RT-Thread/include/rtservice.h ****     n->next = l->next;
 707              		.loc 2 60 5 view .LVU198
  60:Middlewares/Third_Party/RealThread_RTOS_RT-Thread/include/rtservice.h ****     n->next = l->next;
 708              		.loc 2 60 6 is_stmt 0 view .LVU199
 709 0024 064B     		ldr	r3, .L37
 710 0026 1968     		ldr	r1, [r3]
  60:Middlewares/Third_Party/RealThread_RTOS_RT-Thread/include/rtservice.h ****     n->next = l->next;
 711              		.loc 2 60 19 view .LVU200
 712 0028 4A60     		str	r2, [r1, #4]
  61:Middlewares/Third_Party/RealThread_RTOS_RT-Thread/include/rtservice.h **** 
 713              		.loc 2 61 5 is_stmt 1 view .LVU201
  61:Middlewares/Third_Party/RealThread_RTOS_RT-Thread/include/rtservice.h **** 
 714              		.loc 2 61 13 is_stmt 0 view .LVU202
 715 002a 6161     		str	r1, [r4, #20]
  63:Middlewares/Third_Party/RealThread_RTOS_RT-Thread/include/rtservice.h ****     n->prev = l;
 716              		.loc 2 63 5 is_stmt 1 view .LVU203
  63:Middlewares/Third_Party/RealThread_RTOS_RT-Thread/include/rtservice.h ****     n->prev = l;
ARM GAS  C:\Users\GKQ\AppData\Local\Temp\ccA2Fcx9.s 			page 30


 717              		.loc 2 63 13 is_stmt 0 view .LVU204
 718 002c 1A60     		str	r2, [r3]
  64:Middlewares/Third_Party/RealThread_RTOS_RT-Thread/include/rtservice.h **** }
 719              		.loc 2 64 5 is_stmt 1 view .LVU205
  64:Middlewares/Third_Party/RealThread_RTOS_RT-Thread/include/rtservice.h **** }
 720              		.loc 2 64 13 is_stmt 0 view .LVU206
 721 002e A361     		str	r3, [r4, #24]
 722              	.LVL61:
  64:Middlewares/Third_Party/RealThread_RTOS_RT-Thread/include/rtservice.h **** }
 723              		.loc 2 64 13 view .LVU207
 724              	.LBE27:
 725              	.LBE26:
 435:Middlewares/Third_Party/RealThread_RTOS_RT-Thread/src/thread.c **** 
 726              		.loc 1 435 5 is_stmt 1 view .LVU208
 727 0030 FFF7FEFF 		bl	rt_hw_interrupt_enable
 728              	.LVL62:
 437:Middlewares/Third_Party/RealThread_RTOS_RT-Thread/src/thread.c **** }
 729              		.loc 1 437 5 view .LVU209
 438:Middlewares/Third_Party/RealThread_RTOS_RT-Thread/src/thread.c **** RTM_EXPORT(rt_thread_delete);
 730              		.loc 1 438 1 is_stmt 0 view .LVU210
 731 0034 0020     		movs	r0, #0
 732 0036 10BD     		pop	{r4, pc}
 733              	.LVL63:
 734              	.L36:
 419:Middlewares/Third_Party/RealThread_RTOS_RT-Thread/src/thread.c ****     }
 735              		.loc 1 419 9 is_stmt 1 view .LVU211
 736 0038 FFF7FEFF 		bl	rt_schedule_remove_thread
 737              	.LVL64:
 419:Middlewares/Third_Party/RealThread_RTOS_RT-Thread/src/thread.c ****     }
 738              		.loc 1 419 9 is_stmt 0 view .LVU212
 739 003c E7E7     		b	.L34
 740              	.L38:
 741 003e 00BF     		.align	2
 742              	.L37:
 743 0040 00000000 		.word	rt_thread_defunct
 744              		.cfi_endproc
 745              	.LFE22:
 747              		.section	.text.rt_thread_yield,"ax",%progbits
 748              		.align	1
 749              		.global	rt_thread_yield
 750              		.syntax unified
 751              		.thumb
 752              		.thumb_func
 753              		.fpu softvfp
 755              	rt_thread_yield:
 756              	.LFB23:
 450:Middlewares/Third_Party/RealThread_RTOS_RT-Thread/src/thread.c ****     register rt_base_t level;
 757              		.loc 1 450 1 is_stmt 1 view -0
 758              		.cfi_startproc
 759              		@ args = 0, pretend = 0, frame = 0
 760              		@ frame_needed = 0, uses_anonymous_args = 0
 761 0000 10B5     		push	{r4, lr}
 762              	.LCFI14:
 763              		.cfi_def_cfa_offset 8
 764              		.cfi_offset 4, -8
 765              		.cfi_offset 14, -4
 451:Middlewares/Third_Party/RealThread_RTOS_RT-Thread/src/thread.c ****     struct rt_thread *thread;
ARM GAS  C:\Users\GKQ\AppData\Local\Temp\ccA2Fcx9.s 			page 31


 766              		.loc 1 451 5 view .LVU214
 452:Middlewares/Third_Party/RealThread_RTOS_RT-Thread/src/thread.c **** 
 767              		.loc 1 452 5 view .LVU215
 455:Middlewares/Third_Party/RealThread_RTOS_RT-Thread/src/thread.c **** 
 768              		.loc 1 455 5 view .LVU216
 455:Middlewares/Third_Party/RealThread_RTOS_RT-Thread/src/thread.c **** 
 769              		.loc 1 455 13 is_stmt 0 view .LVU217
 770 0002 FFF7FEFF 		bl	rt_hw_interrupt_disable
 771              	.LVL65:
 458:Middlewares/Third_Party/RealThread_RTOS_RT-Thread/src/thread.c **** 
 772              		.loc 1 458 5 is_stmt 1 view .LVU218
 458:Middlewares/Third_Party/RealThread_RTOS_RT-Thread/src/thread.c **** 
 773              		.loc 1 458 12 is_stmt 0 view .LVU219
 774 0006 134B     		ldr	r3, .L44
 775 0008 1B68     		ldr	r3, [r3]
 776              	.LVL66:
 461:Middlewares/Third_Party/RealThread_RTOS_RT-Thread/src/thread.c ****         thread->tlist.next != thread->tlist.prev)
 777              		.loc 1 461 5 is_stmt 1 view .LVU220
 461:Middlewares/Third_Party/RealThread_RTOS_RT-Thread/src/thread.c ****         thread->tlist.next != thread->tlist.prev)
 778              		.loc 1 461 16 is_stmt 0 view .LVU221
 779 000a 93F83420 		ldrb	r2, [r3, #52]	@ zero_extendqisi2
 461:Middlewares/Third_Party/RealThread_RTOS_RT-Thread/src/thread.c ****         thread->tlist.next != thread->tlist.prev)
 780              		.loc 1 461 8 view .LVU222
 781 000e 02F00F02 		and	r2, r2, #15
 782 0012 012A     		cmp	r2, #1
 783 0014 03D1     		bne	.L40
 462:Middlewares/Third_Party/RealThread_RTOS_RT-Thread/src/thread.c ****     {
 784              		.loc 1 462 22 discriminator 1 view .LVU223
 785 0016 5969     		ldr	r1, [r3, #20]
 462:Middlewares/Third_Party/RealThread_RTOS_RT-Thread/src/thread.c ****     {
 786              		.loc 1 462 44 discriminator 1 view .LVU224
 787 0018 9A69     		ldr	r2, [r3, #24]
 461:Middlewares/Third_Party/RealThread_RTOS_RT-Thread/src/thread.c ****         thread->tlist.next != thread->tlist.prev)
 788              		.loc 1 461 65 discriminator 1 view .LVU225
 789 001a 9142     		cmp	r1, r2
 790 001c 03D1     		bne	.L43
 791              	.L40:
 480:Middlewares/Third_Party/RealThread_RTOS_RT-Thread/src/thread.c **** 
 792              		.loc 1 480 5 is_stmt 1 view .LVU226
 793 001e FFF7FEFF 		bl	rt_hw_interrupt_enable
 794              	.LVL67:
 482:Middlewares/Third_Party/RealThread_RTOS_RT-Thread/src/thread.c **** }
 795              		.loc 1 482 5 view .LVU227
 796              	.L41:
 483:Middlewares/Third_Party/RealThread_RTOS_RT-Thread/src/thread.c **** RTM_EXPORT(rt_thread_yield);
 797              		.loc 1 483 1 is_stmt 0 view .LVU228
 798 0022 0020     		movs	r0, #0
 799 0024 10BD     		pop	{r4, pc}
 800              	.LVL68:
 801              	.L43:
 465:Middlewares/Third_Party/RealThread_RTOS_RT-Thread/src/thread.c **** 
 802              		.loc 1 465 9 is_stmt 1 view .LVU229
 803 0026 03F11404 		add	r4, r3, #20
 804              	.LVL69:
 805              	.LBB28:
 806              	.LBI28:
  86:Middlewares/Third_Party/RealThread_RTOS_RT-Thread/include/rtservice.h **** {
ARM GAS  C:\Users\GKQ\AppData\Local\Temp\ccA2Fcx9.s 			page 32


 807              		.loc 2 86 16 view .LVU230
 808              	.LBB29:
  88:Middlewares/Third_Party/RealThread_RTOS_RT-Thread/include/rtservice.h ****     n->prev->next = n->next;
 809              		.loc 2 88 5 view .LVU231
  88:Middlewares/Third_Party/RealThread_RTOS_RT-Thread/include/rtservice.h ****     n->prev->next = n->next;
 810              		.loc 2 88 19 is_stmt 0 view .LVU232
 811 002a 4A60     		str	r2, [r1, #4]
  89:Middlewares/Third_Party/RealThread_RTOS_RT-Thread/include/rtservice.h **** 
 812              		.loc 2 89 5 is_stmt 1 view .LVU233
  89:Middlewares/Third_Party/RealThread_RTOS_RT-Thread/include/rtservice.h **** 
 813              		.loc 2 89 22 is_stmt 0 view .LVU234
 814 002c 5969     		ldr	r1, [r3, #20]
  89:Middlewares/Third_Party/RealThread_RTOS_RT-Thread/include/rtservice.h **** 
 815              		.loc 2 89 19 view .LVU235
 816 002e 1160     		str	r1, [r2]
 817              		.loc 2 91 5 is_stmt 1 view .LVU236
 818              		.loc 2 91 23 is_stmt 0 view .LVU237
 819 0030 9C61     		str	r4, [r3, #24]
 820              		.loc 2 91 13 view .LVU238
 821 0032 5C61     		str	r4, [r3, #20]
 822              	.LVL70:
 823              		.loc 2 91 13 view .LVU239
 824              	.LBE29:
 825              	.LBE28:
 468:Middlewares/Third_Party/RealThread_RTOS_RT-Thread/src/thread.c ****                               &(thread->tlist));
 826              		.loc 1 468 9 is_stmt 1 view .LVU240
 468:Middlewares/Third_Party/RealThread_RTOS_RT-Thread/src/thread.c ****                               &(thread->tlist));
 827              		.loc 1 468 64 is_stmt 0 view .LVU241
 828 0034 93F83510 		ldrb	r1, [r3, #53]	@ zero_extendqisi2
 468:Middlewares/Third_Party/RealThread_RTOS_RT-Thread/src/thread.c ****                               &(thread->tlist));
 829              		.loc 1 468 9 view .LVU242
 830 0038 074A     		ldr	r2, .L44+4
 831 003a 02EBC102 		add	r2, r2, r1, lsl #3
 832              	.LVL71:
 833              	.LBB30:
 834              	.LBI30:
  73:Middlewares/Third_Party/RealThread_RTOS_RT-Thread/include/rtservice.h **** {
 835              		.loc 2 73 16 is_stmt 1 view .LVU243
 836              	.LBB31:
  75:Middlewares/Third_Party/RealThread_RTOS_RT-Thread/include/rtservice.h ****     n->prev = l->prev;
 837              		.loc 2 75 5 view .LVU244
  75:Middlewares/Third_Party/RealThread_RTOS_RT-Thread/include/rtservice.h ****     n->prev = l->prev;
 838              		.loc 2 75 6 is_stmt 0 view .LVU245
 839 003e 5168     		ldr	r1, [r2, #4]
  75:Middlewares/Third_Party/RealThread_RTOS_RT-Thread/include/rtservice.h ****     n->prev = l->prev;
 840              		.loc 2 75 19 view .LVU246
 841 0040 0C60     		str	r4, [r1]
  76:Middlewares/Third_Party/RealThread_RTOS_RT-Thread/include/rtservice.h **** 
 842              		.loc 2 76 5 is_stmt 1 view .LVU247
  76:Middlewares/Third_Party/RealThread_RTOS_RT-Thread/include/rtservice.h **** 
 843              		.loc 2 76 16 is_stmt 0 view .LVU248
 844 0042 5168     		ldr	r1, [r2, #4]
  76:Middlewares/Third_Party/RealThread_RTOS_RT-Thread/include/rtservice.h **** 
 845              		.loc 2 76 13 view .LVU249
 846 0044 9961     		str	r1, [r3, #24]
  78:Middlewares/Third_Party/RealThread_RTOS_RT-Thread/include/rtservice.h ****     n->next = l;
 847              		.loc 2 78 5 is_stmt 1 view .LVU250
ARM GAS  C:\Users\GKQ\AppData\Local\Temp\ccA2Fcx9.s 			page 33


  78:Middlewares/Third_Party/RealThread_RTOS_RT-Thread/include/rtservice.h ****     n->next = l;
 848              		.loc 2 78 13 is_stmt 0 view .LVU251
 849 0046 5460     		str	r4, [r2, #4]
  79:Middlewares/Third_Party/RealThread_RTOS_RT-Thread/include/rtservice.h **** }
 850              		.loc 2 79 5 is_stmt 1 view .LVU252
  79:Middlewares/Third_Party/RealThread_RTOS_RT-Thread/include/rtservice.h **** }
 851              		.loc 2 79 13 is_stmt 0 view .LVU253
 852 0048 5A61     		str	r2, [r3, #20]
 853              	.LVL72:
  79:Middlewares/Third_Party/RealThread_RTOS_RT-Thread/include/rtservice.h **** }
 854              		.loc 2 79 13 view .LVU254
 855              	.LBE31:
 856              	.LBE30:
 472:Middlewares/Third_Party/RealThread_RTOS_RT-Thread/src/thread.c **** 
 857              		.loc 1 472 9 is_stmt 1 view .LVU255
 858 004a FFF7FEFF 		bl	rt_hw_interrupt_enable
 859              	.LVL73:
 474:Middlewares/Third_Party/RealThread_RTOS_RT-Thread/src/thread.c **** 
 860              		.loc 1 474 9 view .LVU256
 861 004e FFF7FEFF 		bl	rt_schedule
 862              	.LVL74:
 476:Middlewares/Third_Party/RealThread_RTOS_RT-Thread/src/thread.c ****     }
 863              		.loc 1 476 9 view .LVU257
 476:Middlewares/Third_Party/RealThread_RTOS_RT-Thread/src/thread.c ****     }
 864              		.loc 1 476 16 is_stmt 0 view .LVU258
 865 0052 E6E7     		b	.L41
 866              	.L45:
 867              		.align	2
 868              	.L44:
 869 0054 00000000 		.word	rt_current_thread
 870 0058 00000000 		.word	rt_thread_priority_table
 871              		.cfi_endproc
 872              	.LFE23:
 874              		.section	.text.rt_thread_suspend,"ax",%progbits
 875              		.align	1
 876              		.global	rt_thread_suspend
 877              		.syntax unified
 878              		.thumb
 879              		.thumb_func
 880              		.fpu softvfp
 882              	rt_thread_suspend:
 883              	.LVL75:
 884              	.LFB28:
 646:Middlewares/Third_Party/RealThread_RTOS_RT-Thread/src/thread.c ****     register rt_base_t temp;
 885              		.loc 1 646 1 is_stmt 1 view -0
 886              		.cfi_startproc
 887              		@ args = 0, pretend = 0, frame = 0
 888              		@ frame_needed = 0, uses_anonymous_args = 0
 646:Middlewares/Third_Party/RealThread_RTOS_RT-Thread/src/thread.c ****     register rt_base_t temp;
 889              		.loc 1 646 1 is_stmt 0 view .LVU260
 890 0000 38B5     		push	{r3, r4, r5, lr}
 891              	.LCFI15:
 892              		.cfi_def_cfa_offset 16
 893              		.cfi_offset 3, -16
 894              		.cfi_offset 4, -12
 895              		.cfi_offset 5, -8
 896              		.cfi_offset 14, -4
ARM GAS  C:\Users\GKQ\AppData\Local\Temp\ccA2Fcx9.s 			page 34


 647:Middlewares/Third_Party/RealThread_RTOS_RT-Thread/src/thread.c **** 
 897              		.loc 1 647 5 is_stmt 1 view .LVU261
 650:Middlewares/Third_Party/RealThread_RTOS_RT-Thread/src/thread.c ****     RT_ASSERT(rt_object_get_type((rt_object_t)thread) == RT_Object_Class_Thread);
 898              		.loc 1 650 33 view .LVU262
 651:Middlewares/Third_Party/RealThread_RTOS_RT-Thread/src/thread.c **** 
 899              		.loc 1 651 81 view .LVU263
 653:Middlewares/Third_Party/RealThread_RTOS_RT-Thread/src/thread.c **** 
 900              		.loc 1 653 75 view .LVU264
 655:Middlewares/Third_Party/RealThread_RTOS_RT-Thread/src/thread.c ****     {
 901              		.loc 1 655 5 view .LVU265
 655:Middlewares/Third_Party/RealThread_RTOS_RT-Thread/src/thread.c ****     {
 902              		.loc 1 655 16 is_stmt 0 view .LVU266
 903 0002 90F83430 		ldrb	r3, [r0, #52]	@ zero_extendqisi2
 655:Middlewares/Third_Party/RealThread_RTOS_RT-Thread/src/thread.c ****     {
 904              		.loc 1 655 8 view .LVU267
 905 0006 03F00F03 		and	r3, r3, #15
 906 000a 012B     		cmp	r3, #1
 907 000c 17D1     		bne	.L48
 908 000e 0446     		mov	r4, r0
 664:Middlewares/Third_Party/RealThread_RTOS_RT-Thread/src/thread.c **** 
 909              		.loc 1 664 5 is_stmt 1 view .LVU268
 664:Middlewares/Third_Party/RealThread_RTOS_RT-Thread/src/thread.c **** 
 910              		.loc 1 664 12 is_stmt 0 view .LVU269
 911 0010 FFF7FEFF 		bl	rt_hw_interrupt_disable
 912              	.LVL76:
 664:Middlewares/Third_Party/RealThread_RTOS_RT-Thread/src/thread.c **** 
 913              		.loc 1 664 12 view .LVU270
 914 0014 0546     		mov	r5, r0
 915              	.LVL77:
 667:Middlewares/Third_Party/RealThread_RTOS_RT-Thread/src/thread.c ****     rt_schedule_remove_thread(thread);
 916              		.loc 1 667 5 is_stmt 1 view .LVU271
 667:Middlewares/Third_Party/RealThread_RTOS_RT-Thread/src/thread.c ****     rt_schedule_remove_thread(thread);
 917              		.loc 1 667 47 is_stmt 0 view .LVU272
 918 0016 94F93430 		ldrsb	r3, [r4, #52]
 667:Middlewares/Third_Party/RealThread_RTOS_RT-Thread/src/thread.c ****     rt_schedule_remove_thread(thread);
 919              		.loc 1 667 54 view .LVU273
 920 001a 23F00F03 		bic	r3, r3, #15
 667:Middlewares/Third_Party/RealThread_RTOS_RT-Thread/src/thread.c ****     rt_schedule_remove_thread(thread);
 921              		.loc 1 667 38 view .LVU274
 922 001e 43F00203 		orr	r3, r3, #2
 667:Middlewares/Third_Party/RealThread_RTOS_RT-Thread/src/thread.c ****     rt_schedule_remove_thread(thread);
 923              		.loc 1 667 18 view .LVU275
 924 0022 84F83430 		strb	r3, [r4, #52]
 668:Middlewares/Third_Party/RealThread_RTOS_RT-Thread/src/thread.c **** 
 925              		.loc 1 668 5 is_stmt 1 view .LVU276
 926 0026 2046     		mov	r0, r4
 927              	.LVL78:
 668:Middlewares/Third_Party/RealThread_RTOS_RT-Thread/src/thread.c **** 
 928              		.loc 1 668 5 is_stmt 0 view .LVU277
 929 0028 FFF7FEFF 		bl	rt_schedule_remove_thread
 930              	.LVL79:
 671:Middlewares/Third_Party/RealThread_RTOS_RT-Thread/src/thread.c **** 
 931              		.loc 1 671 5 is_stmt 1 view .LVU278
 932 002c 04F14400 		add	r0, r4, #68
 933 0030 FFF7FEFF 		bl	rt_timer_stop
 934              	.LVL80:
 674:Middlewares/Third_Party/RealThread_RTOS_RT-Thread/src/thread.c **** 
ARM GAS  C:\Users\GKQ\AppData\Local\Temp\ccA2Fcx9.s 			page 35


 935              		.loc 1 674 5 view .LVU279
 936 0034 2846     		mov	r0, r5
 937 0036 FFF7FEFF 		bl	rt_hw_interrupt_enable
 938              	.LVL81:
 676:Middlewares/Third_Party/RealThread_RTOS_RT-Thread/src/thread.c ****     return RT_EOK;
 939              		.loc 1 676 58 view .LVU280
 677:Middlewares/Third_Party/RealThread_RTOS_RT-Thread/src/thread.c **** }
 940              		.loc 1 677 5 view .LVU281
 677:Middlewares/Third_Party/RealThread_RTOS_RT-Thread/src/thread.c **** }
 941              		.loc 1 677 12 is_stmt 0 view .LVU282
 942 003a 0020     		movs	r0, #0
 943              	.LVL82:
 944              	.L46:
 678:Middlewares/Third_Party/RealThread_RTOS_RT-Thread/src/thread.c **** RTM_EXPORT(rt_thread_suspend);
 945              		.loc 1 678 1 view .LVU283
 946 003c 38BD     		pop	{r3, r4, r5, pc}
 947              	.LVL83:
 948              	.L48:
 660:Middlewares/Third_Party/RealThread_RTOS_RT-Thread/src/thread.c ****     }
 949              		.loc 1 660 16 view .LVU284
 950 003e 4FF0FF30 		mov	r0, #-1
 951              	.LVL84:
 660:Middlewares/Third_Party/RealThread_RTOS_RT-Thread/src/thread.c ****     }
 952              		.loc 1 660 16 view .LVU285
 953 0042 FBE7     		b	.L46
 954              		.cfi_endproc
 955              	.LFE28:
 957              		.section	.text.rt_thread_sleep,"ax",%progbits
 958              		.align	1
 959              		.global	rt_thread_sleep
 960              		.syntax unified
 961              		.thumb
 962              		.thumb_func
 963              		.fpu softvfp
 965              	rt_thread_sleep:
 966              	.LVL85:
 967              	.LFB24:
 494:Middlewares/Third_Party/RealThread_RTOS_RT-Thread/src/thread.c ****     register rt_base_t temp;
 968              		.loc 1 494 1 is_stmt 1 view -0
 969              		.cfi_startproc
 970              		@ args = 0, pretend = 0, frame = 8
 971              		@ frame_needed = 0, uses_anonymous_args = 0
 494:Middlewares/Third_Party/RealThread_RTOS_RT-Thread/src/thread.c ****     register rt_base_t temp;
 972              		.loc 1 494 1 is_stmt 0 view .LVU287
 973 0000 70B5     		push	{r4, r5, r6, lr}
 974              	.LCFI16:
 975              		.cfi_def_cfa_offset 16
 976              		.cfi_offset 4, -16
 977              		.cfi_offset 5, -12
 978              		.cfi_offset 6, -8
 979              		.cfi_offset 14, -4
 980 0002 82B0     		sub	sp, sp, #8
 981              	.LCFI17:
 982              		.cfi_def_cfa_offset 24
 983 0004 0190     		str	r0, [sp, #4]
 495:Middlewares/Third_Party/RealThread_RTOS_RT-Thread/src/thread.c ****     struct rt_thread *thread;
 984              		.loc 1 495 5 is_stmt 1 view .LVU288
ARM GAS  C:\Users\GKQ\AppData\Local\Temp\ccA2Fcx9.s 			page 36


 496:Middlewares/Third_Party/RealThread_RTOS_RT-Thread/src/thread.c **** 
 985              		.loc 1 496 5 view .LVU289
 499:Middlewares/Third_Party/RealThread_RTOS_RT-Thread/src/thread.c ****     /* set to current thread */
 986              		.loc 1 499 5 view .LVU290
 499:Middlewares/Third_Party/RealThread_RTOS_RT-Thread/src/thread.c ****     /* set to current thread */
 987              		.loc 1 499 12 is_stmt 0 view .LVU291
 988 0006 FFF7FEFF 		bl	rt_hw_interrupt_disable
 989              	.LVL86:
 499:Middlewares/Third_Party/RealThread_RTOS_RT-Thread/src/thread.c ****     /* set to current thread */
 990              		.loc 1 499 12 view .LVU292
 991 000a 0546     		mov	r5, r0
 992              	.LVL87:
 501:Middlewares/Third_Party/RealThread_RTOS_RT-Thread/src/thread.c ****     RT_ASSERT(thread != RT_NULL);
 993              		.loc 1 501 5 is_stmt 1 view .LVU293
 501:Middlewares/Third_Party/RealThread_RTOS_RT-Thread/src/thread.c ****     RT_ASSERT(thread != RT_NULL);
 994              		.loc 1 501 12 is_stmt 0 view .LVU294
 995 000c 0E4B     		ldr	r3, .L54
 996 000e 1C68     		ldr	r4, [r3]
 997              	.LVL88:
 502:Middlewares/Third_Party/RealThread_RTOS_RT-Thread/src/thread.c ****     RT_ASSERT(rt_object_get_type((rt_object_t)thread) == RT_Object_Class_Thread);
 998              		.loc 1 502 33 is_stmt 1 view .LVU295
 503:Middlewares/Third_Party/RealThread_RTOS_RT-Thread/src/thread.c **** 
 999              		.loc 1 503 81 view .LVU296
 506:Middlewares/Third_Party/RealThread_RTOS_RT-Thread/src/thread.c **** 
 1000              		.loc 1 506 5 view .LVU297
 1001 0010 2046     		mov	r0, r4
 1002              	.LVL89:
 506:Middlewares/Third_Party/RealThread_RTOS_RT-Thread/src/thread.c **** 
 1003              		.loc 1 506 5 is_stmt 0 view .LVU298
 1004 0012 FFF7FEFF 		bl	rt_thread_suspend
 1005              	.LVL90:
 509:Middlewares/Third_Party/RealThread_RTOS_RT-Thread/src/thread.c ****     rt_timer_start(&(thread->thread_timer));
 1006              		.loc 1 509 5 is_stmt 1 view .LVU299
 1007 0016 04F14406 		add	r6, r4, #68
 1008 001a 01AA     		add	r2, sp, #4
 1009 001c 0021     		movs	r1, #0
 1010 001e 3046     		mov	r0, r6
 1011 0020 FFF7FEFF 		bl	rt_timer_control
 1012              	.LVL91:
 510:Middlewares/Third_Party/RealThread_RTOS_RT-Thread/src/thread.c **** 
 1013              		.loc 1 510 5 view .LVU300
 1014 0024 3046     		mov	r0, r6
 1015 0026 FFF7FEFF 		bl	rt_timer_start
 1016              	.LVL92:
 513:Middlewares/Third_Party/RealThread_RTOS_RT-Thread/src/thread.c **** 
 1017              		.loc 1 513 5 view .LVU301
 1018 002a 2846     		mov	r0, r5
 1019 002c FFF7FEFF 		bl	rt_hw_interrupt_enable
 1020              	.LVL93:
 515:Middlewares/Third_Party/RealThread_RTOS_RT-Thread/src/thread.c **** 
 1021              		.loc 1 515 5 view .LVU302
 1022 0030 FFF7FEFF 		bl	rt_schedule
 1023              	.LVL94:
 518:Middlewares/Third_Party/RealThread_RTOS_RT-Thread/src/thread.c ****         thread->error = RT_EOK;
 1024              		.loc 1 518 5 view .LVU303
 518:Middlewares/Third_Party/RealThread_RTOS_RT-Thread/src/thread.c ****         thread->error = RT_EOK;
 1025              		.loc 1 518 15 is_stmt 0 view .LVU304
ARM GAS  C:\Users\GKQ\AppData\Local\Temp\ccA2Fcx9.s 			page 37


 1026 0034 236B     		ldr	r3, [r4, #48]
 518:Middlewares/Third_Party/RealThread_RTOS_RT-Thread/src/thread.c ****         thread->error = RT_EOK;
 1027              		.loc 1 518 8 view .LVU305
 1028 0036 13F1020F 		cmn	r3, #2
 1029 003a 02D0     		beq	.L53
 1030              	.L51:
 521:Middlewares/Third_Party/RealThread_RTOS_RT-Thread/src/thread.c **** }
 1031              		.loc 1 521 5 is_stmt 1 view .LVU306
 522:Middlewares/Third_Party/RealThread_RTOS_RT-Thread/src/thread.c **** 
 1032              		.loc 1 522 1 is_stmt 0 view .LVU307
 1033 003c 0020     		movs	r0, #0
 1034 003e 02B0     		add	sp, sp, #8
 1035              	.LCFI18:
 1036              		.cfi_remember_state
 1037              		.cfi_def_cfa_offset 16
 1038              		@ sp needed
 1039 0040 70BD     		pop	{r4, r5, r6, pc}
 1040              	.LVL95:
 1041              	.L53:
 1042              	.LCFI19:
 1043              		.cfi_restore_state
 519:Middlewares/Third_Party/RealThread_RTOS_RT-Thread/src/thread.c **** 
 1044              		.loc 1 519 9 is_stmt 1 view .LVU308
 519:Middlewares/Third_Party/RealThread_RTOS_RT-Thread/src/thread.c **** 
 1045              		.loc 1 519 23 is_stmt 0 view .LVU309
 1046 0042 0023     		movs	r3, #0
 1047 0044 2363     		str	r3, [r4, #48]
 1048 0046 F9E7     		b	.L51
 1049              	.L55:
 1050              		.align	2
 1051              	.L54:
 1052 0048 00000000 		.word	rt_current_thread
 1053              		.cfi_endproc
 1054              	.LFE24:
 1056              		.section	.text.rt_thread_delay,"ax",%progbits
 1057              		.align	1
 1058              		.global	rt_thread_delay
 1059              		.syntax unified
 1060              		.thumb
 1061              		.thumb_func
 1062              		.fpu softvfp
 1064              	rt_thread_delay:
 1065              	.LVL96:
 1066              	.LFB25:
 532:Middlewares/Third_Party/RealThread_RTOS_RT-Thread/src/thread.c ****     return rt_thread_sleep(tick);
 1067              		.loc 1 532 1 is_stmt 1 view -0
 1068              		.cfi_startproc
 1069              		@ args = 0, pretend = 0, frame = 0
 1070              		@ frame_needed = 0, uses_anonymous_args = 0
 532:Middlewares/Third_Party/RealThread_RTOS_RT-Thread/src/thread.c ****     return rt_thread_sleep(tick);
 1071              		.loc 1 532 1 is_stmt 0 view .LVU311
 1072 0000 08B5     		push	{r3, lr}
 1073              	.LCFI20:
 1074              		.cfi_def_cfa_offset 8
 1075              		.cfi_offset 3, -8
 1076              		.cfi_offset 14, -4
 533:Middlewares/Third_Party/RealThread_RTOS_RT-Thread/src/thread.c **** }
ARM GAS  C:\Users\GKQ\AppData\Local\Temp\ccA2Fcx9.s 			page 38


 1077              		.loc 1 533 5 is_stmt 1 view .LVU312
 533:Middlewares/Third_Party/RealThread_RTOS_RT-Thread/src/thread.c **** }
 1078              		.loc 1 533 12 is_stmt 0 view .LVU313
 1079 0002 FFF7FEFF 		bl	rt_thread_sleep
 1080              	.LVL97:
 534:Middlewares/Third_Party/RealThread_RTOS_RT-Thread/src/thread.c **** RTM_EXPORT(rt_thread_delay);
 1081              		.loc 1 534 1 view .LVU314
 1082 0006 08BD     		pop	{r3, pc}
 1083              		.cfi_endproc
 1084              	.LFE25:
 1086              		.section	.text.rt_thread_mdelay,"ax",%progbits
 1087              		.align	1
 1088              		.global	rt_thread_mdelay
 1089              		.syntax unified
 1090              		.thumb
 1091              		.thumb_func
 1092              		.fpu softvfp
 1094              	rt_thread_mdelay:
 1095              	.LVL98:
 1096              	.LFB26:
 545:Middlewares/Third_Party/RealThread_RTOS_RT-Thread/src/thread.c ****     rt_tick_t tick;
 1097              		.loc 1 545 1 is_stmt 1 view -0
 1098              		.cfi_startproc
 1099              		@ args = 0, pretend = 0, frame = 0
 1100              		@ frame_needed = 0, uses_anonymous_args = 0
 545:Middlewares/Third_Party/RealThread_RTOS_RT-Thread/src/thread.c ****     rt_tick_t tick;
 1101              		.loc 1 545 1 is_stmt 0 view .LVU316
 1102 0000 08B5     		push	{r3, lr}
 1103              	.LCFI21:
 1104              		.cfi_def_cfa_offset 8
 1105              		.cfi_offset 3, -8
 1106              		.cfi_offset 14, -4
 546:Middlewares/Third_Party/RealThread_RTOS_RT-Thread/src/thread.c **** 
 1107              		.loc 1 546 5 is_stmt 1 view .LVU317
 548:Middlewares/Third_Party/RealThread_RTOS_RT-Thread/src/thread.c **** 
 1108              		.loc 1 548 5 view .LVU318
 548:Middlewares/Third_Party/RealThread_RTOS_RT-Thread/src/thread.c **** 
 1109              		.loc 1 548 12 is_stmt 0 view .LVU319
 1110 0002 FFF7FEFF 		bl	rt_tick_from_millisecond
 1111              	.LVL99:
 550:Middlewares/Third_Party/RealThread_RTOS_RT-Thread/src/thread.c **** }
 1112              		.loc 1 550 5 is_stmt 1 view .LVU320
 550:Middlewares/Third_Party/RealThread_RTOS_RT-Thread/src/thread.c **** }
 1113              		.loc 1 550 12 is_stmt 0 view .LVU321
 1114 0006 FFF7FEFF 		bl	rt_thread_sleep
 1115              	.LVL100:
 551:Middlewares/Third_Party/RealThread_RTOS_RT-Thread/src/thread.c **** RTM_EXPORT(rt_thread_mdelay);
 1116              		.loc 1 551 1 view .LVU322
 1117 000a 08BD     		pop	{r3, pc}
 1118              		.cfi_endproc
 1119              	.LFE26:
 1121              		.section	.text.rt_thread_resume,"ax",%progbits
 1122              		.align	1
 1123              		.global	rt_thread_resume
 1124              		.syntax unified
 1125              		.thumb
 1126              		.thumb_func
ARM GAS  C:\Users\GKQ\AppData\Local\Temp\ccA2Fcx9.s 			page 39


 1127              		.fpu softvfp
 1129              	rt_thread_resume:
 1130              	.LVL101:
 1131              	.LFB29:
 689:Middlewares/Third_Party/RealThread_RTOS_RT-Thread/src/thread.c ****     register rt_base_t temp;
 1132              		.loc 1 689 1 is_stmt 1 view -0
 1133              		.cfi_startproc
 1134              		@ args = 0, pretend = 0, frame = 0
 1135              		@ frame_needed = 0, uses_anonymous_args = 0
 689:Middlewares/Third_Party/RealThread_RTOS_RT-Thread/src/thread.c ****     register rt_base_t temp;
 1136              		.loc 1 689 1 is_stmt 0 view .LVU324
 1137 0000 38B5     		push	{r3, r4, r5, lr}
 1138              	.LCFI22:
 1139              		.cfi_def_cfa_offset 16
 1140              		.cfi_offset 3, -16
 1141              		.cfi_offset 4, -12
 1142              		.cfi_offset 5, -8
 1143              		.cfi_offset 14, -4
 690:Middlewares/Third_Party/RealThread_RTOS_RT-Thread/src/thread.c **** 
 1144              		.loc 1 690 5 is_stmt 1 view .LVU325
 693:Middlewares/Third_Party/RealThread_RTOS_RT-Thread/src/thread.c ****     RT_ASSERT(rt_object_get_type((rt_object_t)thread) == RT_Object_Class_Thread);
 1145              		.loc 1 693 33 view .LVU326
 694:Middlewares/Third_Party/RealThread_RTOS_RT-Thread/src/thread.c **** 
 1146              		.loc 1 694 81 view .LVU327
 696:Middlewares/Third_Party/RealThread_RTOS_RT-Thread/src/thread.c **** 
 1147              		.loc 1 696 74 view .LVU328
 698:Middlewares/Third_Party/RealThread_RTOS_RT-Thread/src/thread.c ****     {
 1148              		.loc 1 698 5 view .LVU329
 698:Middlewares/Third_Party/RealThread_RTOS_RT-Thread/src/thread.c ****     {
 1149              		.loc 1 698 16 is_stmt 0 view .LVU330
 1150 0002 90F83430 		ldrb	r3, [r0, #52]	@ zero_extendqisi2
 698:Middlewares/Third_Party/RealThread_RTOS_RT-Thread/src/thread.c ****     {
 1151              		.loc 1 698 8 view .LVU331
 1152 0006 03F00F03 		and	r3, r3, #15
 1153 000a 022B     		cmp	r3, #2
 1154 000c 18D1     		bne	.L62
 1155 000e 0446     		mov	r4, r0
 707:Middlewares/Third_Party/RealThread_RTOS_RT-Thread/src/thread.c **** 
 1156              		.loc 1 707 5 is_stmt 1 view .LVU332
 707:Middlewares/Third_Party/RealThread_RTOS_RT-Thread/src/thread.c **** 
 1157              		.loc 1 707 12 is_stmt 0 view .LVU333
 1158 0010 FFF7FEFF 		bl	rt_hw_interrupt_disable
 1159              	.LVL102:
 707:Middlewares/Third_Party/RealThread_RTOS_RT-Thread/src/thread.c **** 
 1160              		.loc 1 707 12 view .LVU334
 1161 0014 0546     		mov	r5, r0
 1162              	.LVL103:
 710:Middlewares/Third_Party/RealThread_RTOS_RT-Thread/src/thread.c **** 
 1163              		.loc 1 710 5 is_stmt 1 view .LVU335
 1164 0016 04F11403 		add	r3, r4, #20
 1165              	.LVL104:
 1166              	.LBB32:
 1167              	.LBI32:
  86:Middlewares/Third_Party/RealThread_RTOS_RT-Thread/include/rtservice.h **** {
 1168              		.loc 2 86 16 view .LVU336
 1169              	.LBB33:
  88:Middlewares/Third_Party/RealThread_RTOS_RT-Thread/include/rtservice.h ****     n->prev->next = n->next;
ARM GAS  C:\Users\GKQ\AppData\Local\Temp\ccA2Fcx9.s 			page 40


 1170              		.loc 2 88 5 view .LVU337
  88:Middlewares/Third_Party/RealThread_RTOS_RT-Thread/include/rtservice.h ****     n->prev->next = n->next;
 1171              		.loc 2 88 6 is_stmt 0 view .LVU338
 1172 001a 6169     		ldr	r1, [r4, #20]
  88:Middlewares/Third_Party/RealThread_RTOS_RT-Thread/include/rtservice.h ****     n->prev->next = n->next;
 1173              		.loc 2 88 22 view .LVU339
 1174 001c A269     		ldr	r2, [r4, #24]
  88:Middlewares/Third_Party/RealThread_RTOS_RT-Thread/include/rtservice.h ****     n->prev->next = n->next;
 1175              		.loc 2 88 19 view .LVU340
 1176 001e 4A60     		str	r2, [r1, #4]
  89:Middlewares/Third_Party/RealThread_RTOS_RT-Thread/include/rtservice.h **** 
 1177              		.loc 2 89 5 is_stmt 1 view .LVU341
  89:Middlewares/Third_Party/RealThread_RTOS_RT-Thread/include/rtservice.h **** 
 1178              		.loc 2 89 22 is_stmt 0 view .LVU342
 1179 0020 6169     		ldr	r1, [r4, #20]
  89:Middlewares/Third_Party/RealThread_RTOS_RT-Thread/include/rtservice.h **** 
 1180              		.loc 2 89 19 view .LVU343
 1181 0022 1160     		str	r1, [r2]
 1182              		.loc 2 91 5 is_stmt 1 view .LVU344
 1183              		.loc 2 91 23 is_stmt 0 view .LVU345
 1184 0024 A361     		str	r3, [r4, #24]
 1185              		.loc 2 91 13 view .LVU346
 1186 0026 6361     		str	r3, [r4, #20]
 1187              	.LVL105:
 1188              		.loc 2 91 13 view .LVU347
 1189              	.LBE33:
 1190              	.LBE32:
 712:Middlewares/Third_Party/RealThread_RTOS_RT-Thread/src/thread.c **** 
 1191              		.loc 1 712 5 is_stmt 1 view .LVU348
 1192 0028 04F14400 		add	r0, r4, #68
 1193              	.LVL106:
 712:Middlewares/Third_Party/RealThread_RTOS_RT-Thread/src/thread.c **** 
 1194              		.loc 1 712 5 is_stmt 0 view .LVU349
 1195 002c FFF7FEFF 		bl	rt_timer_stop
 1196              	.LVL107:
 715:Middlewares/Third_Party/RealThread_RTOS_RT-Thread/src/thread.c **** 
 1197              		.loc 1 715 5 is_stmt 1 view .LVU350
 1198 0030 2846     		mov	r0, r5
 1199 0032 FFF7FEFF 		bl	rt_hw_interrupt_enable
 1200              	.LVL108:
 718:Middlewares/Third_Party/RealThread_RTOS_RT-Thread/src/thread.c **** 
 1201              		.loc 1 718 5 view .LVU351
 1202 0036 2046     		mov	r0, r4
 1203 0038 FFF7FEFF 		bl	rt_schedule_insert_thread
 1204              	.LVL109:
 720:Middlewares/Third_Party/RealThread_RTOS_RT-Thread/src/thread.c ****     return RT_EOK;
 1205              		.loc 1 720 57 view .LVU352
 721:Middlewares/Third_Party/RealThread_RTOS_RT-Thread/src/thread.c **** }
 1206              		.loc 1 721 5 view .LVU353
 721:Middlewares/Third_Party/RealThread_RTOS_RT-Thread/src/thread.c **** }
 1207              		.loc 1 721 12 is_stmt 0 view .LVU354
 1208 003c 0020     		movs	r0, #0
 1209              	.LVL110:
 1210              	.L60:
 722:Middlewares/Third_Party/RealThread_RTOS_RT-Thread/src/thread.c **** RTM_EXPORT(rt_thread_resume);
 1211              		.loc 1 722 1 view .LVU355
 1212 003e 38BD     		pop	{r3, r4, r5, pc}
ARM GAS  C:\Users\GKQ\AppData\Local\Temp\ccA2Fcx9.s 			page 41


 1213              	.LVL111:
 1214              	.L62:
 703:Middlewares/Third_Party/RealThread_RTOS_RT-Thread/src/thread.c ****     }
 1215              		.loc 1 703 16 view .LVU356
 1216 0040 4FF0FF30 		mov	r0, #-1
 1217              	.LVL112:
 703:Middlewares/Third_Party/RealThread_RTOS_RT-Thread/src/thread.c ****     }
 1218              		.loc 1 703 16 view .LVU357
 1219 0044 FBE7     		b	.L60
 1220              		.cfi_endproc
 1221              	.LFE29:
 1223              		.section	.text.rt_thread_startup,"ax",%progbits
 1224              		.align	1
 1225              		.global	rt_thread_startup
 1226              		.syntax unified
 1227              		.thumb
 1228              		.thumb_func
 1229              		.fpu softvfp
 1231              	rt_thread_startup:
 1232              	.LVL113:
 1233              	.LFB19:
 266:Middlewares/Third_Party/RealThread_RTOS_RT-Thread/src/thread.c ****     /* thread check */
 1234              		.loc 1 266 1 is_stmt 1 view -0
 1235              		.cfi_startproc
 1236              		@ args = 0, pretend = 0, frame = 0
 1237              		@ frame_needed = 0, uses_anonymous_args = 0
 266:Middlewares/Third_Party/RealThread_RTOS_RT-Thread/src/thread.c ****     /* thread check */
 1238              		.loc 1 266 1 is_stmt 0 view .LVU359
 1239 0000 08B5     		push	{r3, lr}
 1240              	.LCFI23:
 1241              		.cfi_def_cfa_offset 8
 1242              		.cfi_offset 3, -8
 1243              		.cfi_offset 14, -4
 268:Middlewares/Third_Party/RealThread_RTOS_RT-Thread/src/thread.c ****     RT_ASSERT((thread->stat & RT_THREAD_STAT_MASK) == RT_THREAD_INIT);
 1244              		.loc 1 268 33 is_stmt 1 view .LVU360
 269:Middlewares/Third_Party/RealThread_RTOS_RT-Thread/src/thread.c ****     RT_ASSERT(rt_object_get_type((rt_object_t)thread) == RT_Object_Class_Thread);
 1245              		.loc 1 269 70 view .LVU361
 270:Middlewares/Third_Party/RealThread_RTOS_RT-Thread/src/thread.c **** 
 1246              		.loc 1 270 81 view .LVU362
 273:Middlewares/Third_Party/RealThread_RTOS_RT-Thread/src/thread.c **** 
 1247              		.loc 1 273 5 view .LVU363
 273:Middlewares/Third_Party/RealThread_RTOS_RT-Thread/src/thread.c **** 
 1248              		.loc 1 273 38 is_stmt 0 view .LVU364
 1249 0002 90F83610 		ldrb	r1, [r0, #54]	@ zero_extendqisi2
 273:Middlewares/Third_Party/RealThread_RTOS_RT-Thread/src/thread.c **** 
 1250              		.loc 1 273 30 view .LVU365
 1251 0006 80F83510 		strb	r1, [r0, #53]
 281:Middlewares/Third_Party/RealThread_RTOS_RT-Thread/src/thread.c **** #endif
 1252              		.loc 1 281 5 is_stmt 1 view .LVU366
 281:Middlewares/Third_Party/RealThread_RTOS_RT-Thread/src/thread.c **** #endif
 1253              		.loc 1 281 30 is_stmt 0 view .LVU367
 1254 000a 0122     		movs	r2, #1
 1255 000c 8A40     		lsls	r2, r2, r1
 281:Middlewares/Third_Party/RealThread_RTOS_RT-Thread/src/thread.c **** #endif
 1256              		.loc 1 281 25 view .LVU368
 1257 000e 8263     		str	r2, [r0, #56]
 285:Middlewares/Third_Party/RealThread_RTOS_RT-Thread/src/thread.c ****     /* change thread stat */
ARM GAS  C:\Users\GKQ\AppData\Local\Temp\ccA2Fcx9.s 			page 42


 1258              		.loc 1 285 73 is_stmt 1 view .LVU369
 287:Middlewares/Third_Party/RealThread_RTOS_RT-Thread/src/thread.c ****     /* then resume it */
 1259              		.loc 1 287 5 view .LVU370
 287:Middlewares/Third_Party/RealThread_RTOS_RT-Thread/src/thread.c ****     /* then resume it */
 1260              		.loc 1 287 18 is_stmt 0 view .LVU371
 1261 0010 0222     		movs	r2, #2
 1262 0012 80F83420 		strb	r2, [r0, #52]
 289:Middlewares/Third_Party/RealThread_RTOS_RT-Thread/src/thread.c ****     if (rt_thread_self() != RT_NULL)
 1263              		.loc 1 289 5 is_stmt 1 view .LVU372
 1264 0016 FFF7FEFF 		bl	rt_thread_resume
 1265              	.LVL114:
 290:Middlewares/Third_Party/RealThread_RTOS_RT-Thread/src/thread.c ****     {
 1266              		.loc 1 290 5 view .LVU373
 290:Middlewares/Third_Party/RealThread_RTOS_RT-Thread/src/thread.c ****     {
 1267              		.loc 1 290 9 is_stmt 0 view .LVU374
 1268 001a FFF7FEFF 		bl	rt_thread_self
 1269              	.LVL115:
 290:Middlewares/Third_Party/RealThread_RTOS_RT-Thread/src/thread.c ****     {
 1270              		.loc 1 290 8 view .LVU375
 1271 001e 08B1     		cbz	r0, .L65
 293:Middlewares/Third_Party/RealThread_RTOS_RT-Thread/src/thread.c ****     }
 1272              		.loc 1 293 9 is_stmt 1 view .LVU376
 1273 0020 FFF7FEFF 		bl	rt_schedule
 1274              	.LVL116:
 1275              	.L65:
 296:Middlewares/Third_Party/RealThread_RTOS_RT-Thread/src/thread.c **** }
 1276              		.loc 1 296 5 view .LVU377
 297:Middlewares/Third_Party/RealThread_RTOS_RT-Thread/src/thread.c **** RTM_EXPORT(rt_thread_startup);
 1277              		.loc 1 297 1 is_stmt 0 view .LVU378
 1278 0024 0020     		movs	r0, #0
 1279 0026 08BD     		pop	{r3, pc}
 1280              		.cfi_endproc
 1281              	.LFE19:
 1283              		.section	.text.rt_thread_control,"ax",%progbits
 1284              		.align	1
 1285              		.global	rt_thread_control
 1286              		.syntax unified
 1287              		.thumb
 1288              		.thumb_func
 1289              		.fpu softvfp
 1291              	rt_thread_control:
 1292              	.LVL117:
 1293              	.LFB27:
 567:Middlewares/Third_Party/RealThread_RTOS_RT-Thread/src/thread.c ****     register rt_base_t temp;
 1294              		.loc 1 567 1 is_stmt 1 view -0
 1295              		.cfi_startproc
 1296              		@ args = 0, pretend = 0, frame = 0
 1297              		@ frame_needed = 0, uses_anonymous_args = 0
 567:Middlewares/Third_Party/RealThread_RTOS_RT-Thread/src/thread.c ****     register rt_base_t temp;
 1298              		.loc 1 567 1 is_stmt 0 view .LVU380
 1299 0000 70B5     		push	{r4, r5, r6, lr}
 1300              	.LCFI24:
 1301              		.cfi_def_cfa_offset 16
 1302              		.cfi_offset 4, -16
 1303              		.cfi_offset 5, -12
 1304              		.cfi_offset 6, -8
 1305              		.cfi_offset 14, -4
ARM GAS  C:\Users\GKQ\AppData\Local\Temp\ccA2Fcx9.s 			page 43


 1306 0002 0446     		mov	r4, r0
 568:Middlewares/Third_Party/RealThread_RTOS_RT-Thread/src/thread.c **** 
 1307              		.loc 1 568 5 is_stmt 1 view .LVU381
 571:Middlewares/Third_Party/RealThread_RTOS_RT-Thread/src/thread.c ****     RT_ASSERT(rt_object_get_type((rt_object_t)thread) == RT_Object_Class_Thread);
 1308              		.loc 1 571 33 view .LVU382
 572:Middlewares/Third_Party/RealThread_RTOS_RT-Thread/src/thread.c **** 
 1309              		.loc 1 572 81 view .LVU383
 574:Middlewares/Third_Party/RealThread_RTOS_RT-Thread/src/thread.c ****     {
 1310              		.loc 1 574 5 view .LVU384
 1311 0004 0129     		cmp	r1, #1
 1312 0006 29D0     		beq	.L68
 1313 0008 1546     		mov	r5, r2
 1314 000a 0229     		cmp	r1, #2
 1315 000c 02D0     		beq	.L69
 1316 000e 11B3     		cbz	r1, .L70
 1317 0010 0020     		movs	r0, #0
 1318              	.LVL118:
 1319              	.L67:
 632:Middlewares/Third_Party/RealThread_RTOS_RT-Thread/src/thread.c **** RTM_EXPORT(rt_thread_control);
 1320              		.loc 1 632 1 is_stmt 0 view .LVU385
 1321 0012 70BD     		pop	{r4, r5, r6, pc}
 1322              	.LVL119:
 1323              	.L69:
 578:Middlewares/Third_Party/RealThread_RTOS_RT-Thread/src/thread.c **** 
 1324              		.loc 1 578 9 is_stmt 1 view .LVU386
 578:Middlewares/Third_Party/RealThread_RTOS_RT-Thread/src/thread.c **** 
 1325              		.loc 1 578 16 is_stmt 0 view .LVU387
 1326 0014 FFF7FEFF 		bl	rt_hw_interrupt_disable
 1327              	.LVL120:
 578:Middlewares/Third_Party/RealThread_RTOS_RT-Thread/src/thread.c **** 
 1328              		.loc 1 578 16 view .LVU388
 1329 0018 0646     		mov	r6, r0
 1330              	.LVL121:
 581:Middlewares/Third_Party/RealThread_RTOS_RT-Thread/src/thread.c ****         {
 1331              		.loc 1 581 9 is_stmt 1 view .LVU389
 581:Middlewares/Third_Party/RealThread_RTOS_RT-Thread/src/thread.c ****         {
 1332              		.loc 1 581 20 is_stmt 0 view .LVU390
 1333 001a 94F83430 		ldrb	r3, [r4, #52]	@ zero_extendqisi2
 581:Middlewares/Third_Party/RealThread_RTOS_RT-Thread/src/thread.c ****         {
 1334              		.loc 1 581 12 view .LVU391
 1335 001e 03F00F03 		and	r3, r3, #15
 1336 0022 012B     		cmp	r3, #1
 1337 0024 0AD0     		beq	.L75
 603:Middlewares/Third_Party/RealThread_RTOS_RT-Thread/src/thread.c **** 
 1338              		.loc 1 603 13 is_stmt 1 view .LVU392
 603:Middlewares/Third_Party/RealThread_RTOS_RT-Thread/src/thread.c **** 
 1339              		.loc 1 603 40 is_stmt 0 view .LVU393
 1340 0026 2A78     		ldrb	r2, [r5]	@ zero_extendqisi2
 603:Middlewares/Third_Party/RealThread_RTOS_RT-Thread/src/thread.c **** 
 1341              		.loc 1 603 38 view .LVU394
 1342 0028 84F83520 		strb	r2, [r4, #53]
 611:Middlewares/Third_Party/RealThread_RTOS_RT-Thread/src/thread.c **** #endif
 1343              		.loc 1 611 13 is_stmt 1 view .LVU395
 611:Middlewares/Third_Party/RealThread_RTOS_RT-Thread/src/thread.c **** #endif
 1344              		.loc 1 611 37 is_stmt 0 view .LVU396
 1345 002c 0123     		movs	r3, #1
 1346 002e 9340     		lsls	r3, r3, r2
ARM GAS  C:\Users\GKQ\AppData\Local\Temp\ccA2Fcx9.s 			page 44


 611:Middlewares/Third_Party/RealThread_RTOS_RT-Thread/src/thread.c **** #endif
 1347              		.loc 1 611 33 view .LVU397
 1348 0030 A363     		str	r3, [r4, #56]
 1349              	.LVL122:
 1350              	.L73:
 616:Middlewares/Third_Party/RealThread_RTOS_RT-Thread/src/thread.c ****         break;
 1351              		.loc 1 616 9 is_stmt 1 view .LVU398
 1352 0032 3046     		mov	r0, r6
 1353 0034 FFF7FEFF 		bl	rt_hw_interrupt_enable
 1354              	.LVL123:
 617:Middlewares/Third_Party/RealThread_RTOS_RT-Thread/src/thread.c **** 
 1355              		.loc 1 617 9 view .LVU399
 631:Middlewares/Third_Party/RealThread_RTOS_RT-Thread/src/thread.c **** }
 1356              		.loc 1 631 12 is_stmt 0 view .LVU400
 1357 0038 0020     		movs	r0, #0
 617:Middlewares/Third_Party/RealThread_RTOS_RT-Thread/src/thread.c **** 
 1358              		.loc 1 617 9 view .LVU401
 1359 003a EAE7     		b	.L67
 1360              	.LVL124:
 1361              	.L75:
 584:Middlewares/Third_Party/RealThread_RTOS_RT-Thread/src/thread.c **** 
 1362              		.loc 1 584 13 is_stmt 1 view .LVU402
 1363 003c 2046     		mov	r0, r4
 1364              	.LVL125:
 584:Middlewares/Third_Party/RealThread_RTOS_RT-Thread/src/thread.c **** 
 1365              		.loc 1 584 13 is_stmt 0 view .LVU403
 1366 003e FFF7FEFF 		bl	rt_schedule_remove_thread
 1367              	.LVL126:
 587:Middlewares/Third_Party/RealThread_RTOS_RT-Thread/src/thread.c **** 
 1368              		.loc 1 587 13 is_stmt 1 view .LVU404
 587:Middlewares/Third_Party/RealThread_RTOS_RT-Thread/src/thread.c **** 
 1369              		.loc 1 587 40 is_stmt 0 view .LVU405
 1370 0042 2A78     		ldrb	r2, [r5]	@ zero_extendqisi2
 587:Middlewares/Third_Party/RealThread_RTOS_RT-Thread/src/thread.c **** 
 1371              		.loc 1 587 38 view .LVU406
 1372 0044 84F83520 		strb	r2, [r4, #53]
 595:Middlewares/Third_Party/RealThread_RTOS_RT-Thread/src/thread.c **** #endif
 1373              		.loc 1 595 13 is_stmt 1 view .LVU407
 595:Middlewares/Third_Party/RealThread_RTOS_RT-Thread/src/thread.c **** #endif
 1374              		.loc 1 595 37 is_stmt 0 view .LVU408
 1375 0048 0123     		movs	r3, #1
 1376 004a 9340     		lsls	r3, r3, r2
 595:Middlewares/Third_Party/RealThread_RTOS_RT-Thread/src/thread.c **** #endif
 1377              		.loc 1 595 33 view .LVU409
 1378 004c A363     		str	r3, [r4, #56]
 599:Middlewares/Third_Party/RealThread_RTOS_RT-Thread/src/thread.c ****         }
 1379              		.loc 1 599 13 is_stmt 1 view .LVU410
 1380 004e 2046     		mov	r0, r4
 1381 0050 FFF7FEFF 		bl	rt_schedule_insert_thread
 1382              	.LVL127:
 1383 0054 EDE7     		b	.L73
 1384              	.LVL128:
 1385              	.L70:
 620:Middlewares/Third_Party/RealThread_RTOS_RT-Thread/src/thread.c **** 
 1386              		.loc 1 620 9 view .LVU411
 620:Middlewares/Third_Party/RealThread_RTOS_RT-Thread/src/thread.c **** 
 1387              		.loc 1 620 16 is_stmt 0 view .LVU412
ARM GAS  C:\Users\GKQ\AppData\Local\Temp\ccA2Fcx9.s 			page 45


 1388 0056 FFF7FEFF 		bl	rt_thread_startup
 1389              	.LVL129:
 620:Middlewares/Third_Party/RealThread_RTOS_RT-Thread/src/thread.c **** 
 1390              		.loc 1 620 16 view .LVU413
 1391 005a DAE7     		b	.L67
 1392              	.LVL130:
 1393              	.L68:
 624:Middlewares/Third_Party/RealThread_RTOS_RT-Thread/src/thread.c **** #endif
 1394              		.loc 1 624 9 is_stmt 1 view .LVU414
 624:Middlewares/Third_Party/RealThread_RTOS_RT-Thread/src/thread.c **** #endif
 1395              		.loc 1 624 16 is_stmt 0 view .LVU415
 1396 005c FFF7FEFF 		bl	rt_thread_delete
 1397              	.LVL131:
 624:Middlewares/Third_Party/RealThread_RTOS_RT-Thread/src/thread.c **** #endif
 1398              		.loc 1 624 16 view .LVU416
 1399 0060 D7E7     		b	.L67
 1400              		.cfi_endproc
 1401              	.LFE27:
 1403              		.section	.text.rt_thread_find,"ax",%progbits
 1404              		.align	1
 1405              		.global	rt_thread_find
 1406              		.syntax unified
 1407              		.thumb
 1408              		.thumb_func
 1409              		.fpu softvfp
 1411              	rt_thread_find:
 1412              	.LVL132:
 1413              	.LFB31:
 754:Middlewares/Third_Party/RealThread_RTOS_RT-Thread/src/thread.c **** RTM_EXPORT(rt_thread_timeout);
 755:Middlewares/Third_Party/RealThread_RTOS_RT-Thread/src/thread.c **** 
 756:Middlewares/Third_Party/RealThread_RTOS_RT-Thread/src/thread.c **** /**
 757:Middlewares/Third_Party/RealThread_RTOS_RT-Thread/src/thread.c ****  * This function will find the specified thread.
 758:Middlewares/Third_Party/RealThread_RTOS_RT-Thread/src/thread.c ****  *
 759:Middlewares/Third_Party/RealThread_RTOS_RT-Thread/src/thread.c ****  * @param name the name of thread finding
 760:Middlewares/Third_Party/RealThread_RTOS_RT-Thread/src/thread.c ****  *
 761:Middlewares/Third_Party/RealThread_RTOS_RT-Thread/src/thread.c ****  * @return the found thread
 762:Middlewares/Third_Party/RealThread_RTOS_RT-Thread/src/thread.c ****  *
 763:Middlewares/Third_Party/RealThread_RTOS_RT-Thread/src/thread.c ****  * @note please don't invoke this function in interrupt status.
 764:Middlewares/Third_Party/RealThread_RTOS_RT-Thread/src/thread.c ****  */
 765:Middlewares/Third_Party/RealThread_RTOS_RT-Thread/src/thread.c **** rt_thread_t rt_thread_find(char *name)
 766:Middlewares/Third_Party/RealThread_RTOS_RT-Thread/src/thread.c **** {
 1414              		.loc 1 766 1 is_stmt 1 view -0
 1415              		.cfi_startproc
 1416              		@ args = 0, pretend = 0, frame = 0
 1417              		@ frame_needed = 0, uses_anonymous_args = 0
 1418              		.loc 1 766 1 is_stmt 0 view .LVU418
 1419 0000 F8B5     		push	{r3, r4, r5, r6, r7, lr}
 1420              	.LCFI25:
 1421              		.cfi_def_cfa_offset 24
 1422              		.cfi_offset 3, -24
 1423              		.cfi_offset 4, -20
 1424              		.cfi_offset 5, -16
 1425              		.cfi_offset 6, -12
 1426              		.cfi_offset 7, -8
 1427              		.cfi_offset 14, -4
 1428 0002 0746     		mov	r7, r0
 767:Middlewares/Third_Party/RealThread_RTOS_RT-Thread/src/thread.c ****     struct rt_object_information *information;
ARM GAS  C:\Users\GKQ\AppData\Local\Temp\ccA2Fcx9.s 			page 46


 1429              		.loc 1 767 5 is_stmt 1 view .LVU419
 768:Middlewares/Third_Party/RealThread_RTOS_RT-Thread/src/thread.c ****     struct rt_object *object;
 1430              		.loc 1 768 5 view .LVU420
 769:Middlewares/Third_Party/RealThread_RTOS_RT-Thread/src/thread.c ****     struct rt_list_node *node;
 1431              		.loc 1 769 5 view .LVU421
 770:Middlewares/Third_Party/RealThread_RTOS_RT-Thread/src/thread.c **** 
 771:Middlewares/Third_Party/RealThread_RTOS_RT-Thread/src/thread.c ****     /* enter critical */
 772:Middlewares/Third_Party/RealThread_RTOS_RT-Thread/src/thread.c ****     if (rt_thread_self() != RT_NULL)
 1432              		.loc 1 772 5 view .LVU422
 1433              		.loc 1 772 9 is_stmt 0 view .LVU423
 1434 0004 FFF7FEFF 		bl	rt_thread_self
 1435              	.LVL133:
 1436              		.loc 1 772 8 view .LVU424
 1437 0008 08B1     		cbz	r0, .L77
 773:Middlewares/Third_Party/RealThread_RTOS_RT-Thread/src/thread.c ****         rt_enter_critical();
 1438              		.loc 1 773 9 is_stmt 1 view .LVU425
 1439 000a FFF7FEFF 		bl	rt_enter_critical
 1440              	.LVL134:
 1441              	.L77:
 774:Middlewares/Third_Party/RealThread_RTOS_RT-Thread/src/thread.c **** 
 775:Middlewares/Third_Party/RealThread_RTOS_RT-Thread/src/thread.c ****     /* try to find device object */
 776:Middlewares/Third_Party/RealThread_RTOS_RT-Thread/src/thread.c ****     information = rt_object_get_information(RT_Object_Class_Thread);
 1442              		.loc 1 776 5 view .LVU426
 1443              		.loc 1 776 19 is_stmt 0 view .LVU427
 1444 000e 0120     		movs	r0, #1
 1445 0010 FFF7FEFF 		bl	rt_object_get_information
 1446              	.LVL135:
 1447 0014 0646     		mov	r6, r0
 1448              	.LVL136:
 777:Middlewares/Third_Party/RealThread_RTOS_RT-Thread/src/thread.c ****     RT_ASSERT(information != RT_NULL);
 1449              		.loc 1 777 38 is_stmt 1 view .LVU428
 778:Middlewares/Third_Party/RealThread_RTOS_RT-Thread/src/thread.c ****     for (node  = information->object_list.next;
 1450              		.loc 1 778 5 view .LVU429
 1451              		.loc 1 778 16 is_stmt 0 view .LVU430
 1452 0016 4468     		ldr	r4, [r0, #4]
 1453              	.LVL137:
 1454              	.L78:
 779:Middlewares/Third_Party/RealThread_RTOS_RT-Thread/src/thread.c ****          node != &(information->object_list);
 1455              		.loc 1 779 10 is_stmt 1 discriminator 1 view .LVU431
 1456              		.loc 1 779 18 is_stmt 0 discriminator 1 view .LVU432
 1457 0018 331D     		adds	r3, r6, #4
 778:Middlewares/Third_Party/RealThread_RTOS_RT-Thread/src/thread.c ****     for (node  = information->object_list.next;
 1458              		.loc 1 778 5 discriminator 1 view .LVU433
 1459 001a A342     		cmp	r3, r4
 1460 001c 0FD0     		beq	.L84
 780:Middlewares/Third_Party/RealThread_RTOS_RT-Thread/src/thread.c ****          node  = node->next)
 781:Middlewares/Third_Party/RealThread_RTOS_RT-Thread/src/thread.c ****     {
 782:Middlewares/Third_Party/RealThread_RTOS_RT-Thread/src/thread.c ****         object = rt_list_entry(node, struct rt_object, list);
 1461              		.loc 1 782 9 is_stmt 1 view .LVU434
 1462              		.loc 1 782 16 is_stmt 0 view .LVU435
 1463 001e A4F10C05 		sub	r5, r4, #12
 1464              	.LVL138:
 783:Middlewares/Third_Party/RealThread_RTOS_RT-Thread/src/thread.c ****         if (rt_strncmp(object->name, name, RT_NAME_MAX) == 0)
 1465              		.loc 1 783 9 is_stmt 1 view .LVU436
 1466              		.loc 1 783 13 is_stmt 0 view .LVU437
 1467 0022 0822     		movs	r2, #8
 1468 0024 3946     		mov	r1, r7
ARM GAS  C:\Users\GKQ\AppData\Local\Temp\ccA2Fcx9.s 			page 47


 1469 0026 2846     		mov	r0, r5
 1470 0028 FFF7FEFF 		bl	rt_strncmp
 1471              	.LVL139:
 1472              		.loc 1 783 12 view .LVU438
 1473 002c 08B1     		cbz	r0, .L85
 780:Middlewares/Third_Party/RealThread_RTOS_RT-Thread/src/thread.c ****          node  = node->next)
 1474              		.loc 1 780 10 is_stmt 1 view .LVU439
 780:Middlewares/Third_Party/RealThread_RTOS_RT-Thread/src/thread.c ****          node  = node->next)
 1475              		.loc 1 780 16 is_stmt 0 view .LVU440
 1476 002e 2468     		ldr	r4, [r4]
 1477              	.LVL140:
 780:Middlewares/Third_Party/RealThread_RTOS_RT-Thread/src/thread.c ****          node  = node->next)
 1478              		.loc 1 780 16 view .LVU441
 1479 0030 F2E7     		b	.L78
 1480              	.L85:
 784:Middlewares/Third_Party/RealThread_RTOS_RT-Thread/src/thread.c ****         {
 785:Middlewares/Third_Party/RealThread_RTOS_RT-Thread/src/thread.c ****             /* leave critical */
 786:Middlewares/Third_Party/RealThread_RTOS_RT-Thread/src/thread.c ****             if (rt_thread_self() != RT_NULL)
 1481              		.loc 1 786 13 is_stmt 1 view .LVU442
 1482              		.loc 1 786 17 is_stmt 0 view .LVU443
 1483 0032 FFF7FEFF 		bl	rt_thread_self
 1484              	.LVL141:
 1485              		.loc 1 786 16 view .LVU444
 1486 0036 48B1     		cbz	r0, .L76
 787:Middlewares/Third_Party/RealThread_RTOS_RT-Thread/src/thread.c ****                 rt_exit_critical();
 1487              		.loc 1 787 17 is_stmt 1 view .LVU445
 1488 0038 FFF7FEFF 		bl	rt_exit_critical
 1489              	.LVL142:
 788:Middlewares/Third_Party/RealThread_RTOS_RT-Thread/src/thread.c **** 
 789:Middlewares/Third_Party/RealThread_RTOS_RT-Thread/src/thread.c ****             return (rt_thread_t)object;
 1490              		.loc 1 789 13 view .LVU446
 1491              		.loc 1 789 20 is_stmt 0 view .LVU447
 1492 003c 06E0     		b	.L76
 1493              	.LVL143:
 1494              	.L84:
 790:Middlewares/Third_Party/RealThread_RTOS_RT-Thread/src/thread.c ****         }
 791:Middlewares/Third_Party/RealThread_RTOS_RT-Thread/src/thread.c ****     }
 792:Middlewares/Third_Party/RealThread_RTOS_RT-Thread/src/thread.c **** 
 793:Middlewares/Third_Party/RealThread_RTOS_RT-Thread/src/thread.c ****     /* leave critical */
 794:Middlewares/Third_Party/RealThread_RTOS_RT-Thread/src/thread.c ****     if (rt_thread_self() != RT_NULL)
 1495              		.loc 1 794 5 is_stmt 1 view .LVU448
 1496              		.loc 1 794 9 is_stmt 0 view .LVU449
 1497 003e FFF7FEFF 		bl	rt_thread_self
 1498              	.LVL144:
 1499              		.loc 1 794 8 view .LVU450
 1500 0042 0546     		mov	r5, r0
 1501 0044 10B1     		cbz	r0, .L76
 795:Middlewares/Third_Party/RealThread_RTOS_RT-Thread/src/thread.c ****         rt_exit_critical();
 1502              		.loc 1 795 9 is_stmt 1 view .LVU451
 1503 0046 FFF7FEFF 		bl	rt_exit_critical
 1504              	.LVL145:
 796:Middlewares/Third_Party/RealThread_RTOS_RT-Thread/src/thread.c **** 
 797:Middlewares/Third_Party/RealThread_RTOS_RT-Thread/src/thread.c ****     /* not found */
 798:Middlewares/Third_Party/RealThread_RTOS_RT-Thread/src/thread.c ****     return RT_NULL;
 1505              		.loc 1 798 12 is_stmt 0 view .LVU452
 1506 004a 0025     		movs	r5, #0
 1507              	.L76:
ARM GAS  C:\Users\GKQ\AppData\Local\Temp\ccA2Fcx9.s 			page 48


 799:Middlewares/Third_Party/RealThread_RTOS_RT-Thread/src/thread.c **** }
 1508              		.loc 1 799 1 view .LVU453
 1509 004c 2846     		mov	r0, r5
 1510 004e F8BD     		pop	{r3, r4, r5, r6, r7, pc}
 1511              		.loc 1 799 1 view .LVU454
 1512              		.cfi_endproc
 1513              	.LFE31:
 1515              		.text
 1516              	.Letext0:
 1517              		.file 3 "Middlewares/Third_Party/RealThread_RTOS_RT-Thread/include/rtdef.h"
 1518              		.file 4 "Middlewares/Third_Party/RealThread_RTOS_RT-Thread/components/finsh/finsh_api.h"
 1519              		.file 5 "Middlewares/Third_Party/RealThread_RTOS_RT-Thread/include/rtthread.h"
 1520              		.file 6 "Middlewares/Third_Party/RealThread_RTOS_RT-Thread/include/rthw.h"
ARM GAS  C:\Users\GKQ\AppData\Local\Temp\ccA2Fcx9.s 			page 49

