ARM GAS  C:\Users\GKQ\AppData\Local\Temp\ccKrnMFN.s 			page 1


   1              		.cpu cortex-m3
   2              		.eabi_attribute 20, 1
   3              		.eabi_attribute 21, 1
   4              		.eabi_attribute 23, 3
   5              		.eabi_attribute 24, 1
   6              		.eabi_attribute 25, 1
   7              		.eabi_attribute 26, 1
   8              		.eabi_attribute 30, 1
   9              		.eabi_attribute 34, 1
  10              		.eabi_attribute 18, 4
  11              		.file	"thread_sample.c"
  12              		.text
  13              	.Ltext0:
  14              		.cfi_sections	.debug_frame
  15              		.section	.rodata.thread_sample.str1.4,"aMS",%progbits,1
  16              		.align	2
  17              	.LC0:
  18 0000 74687265 		.ascii	"thread1\000"
  18      61643100 
  19              		.align	2
  20              	.LC1:
  21 0008 74687265 		.ascii	"thread2\000"
  21      61643200 
  22              		.section	.text.thread_sample,"ax",%progbits
  23              		.align	1
  24              		.global	thread_sample
  25              		.arch armv7-m
  26              		.syntax unified
  27              		.thumb
  28              		.thumb_func
  29              		.fpu softvfp
  31              	thread_sample:
  32              	.LFB17:
  33              		.file 1 "Core/thread_sample/thread_sample.c"
   1:Core/thread_sample/thread_sample.c **** #include "rtthread.h"
   2:Core/thread_sample/thread_sample.c **** #define THREAD_PRIORITY 25
   3:Core/thread_sample/thread_sample.c **** #define THREAD_STACK_SIZE 512
   4:Core/thread_sample/thread_sample.c **** #define THREAD_TIMESLICE 5
   5:Core/thread_sample/thread_sample.c **** 
   6:Core/thread_sample/thread_sample.c **** static rt_thread_t tid1 = RT_NULL;
   7:Core/thread_sample/thread_sample.c **** 
   8:Core/thread_sample/thread_sample.c **** /*线程1的入口函数*/
   9:Core/thread_sample/thread_sample.c **** static void thread1_entry(void * parameter)
  10:Core/thread_sample/thread_sample.c **** {
  11:Core/thread_sample/thread_sample.c ****     rt_uint32_t count = 0;
  12:Core/thread_sample/thread_sample.c ****     while (1)
  13:Core/thread_sample/thread_sample.c ****     {
  14:Core/thread_sample/thread_sample.c ****         /*线程1采用低优先级运行，一直打印级数*/
  15:Core/thread_sample/thread_sample.c ****         rt_kprintf("thread1 count:%d\n", count++);
  16:Core/thread_sample/thread_sample.c ****         rt_thread_mdelay(500);
  17:Core/thread_sample/thread_sample.c ****     }
  18:Core/thread_sample/thread_sample.c ****     
  19:Core/thread_sample/thread_sample.c **** }
  20:Core/thread_sample/thread_sample.c **** /*线程2线程栈、控制块、入口函数定义*/
  21:Core/thread_sample/thread_sample.c **** ALIGN(RT_ALIGN_SIZE)
  22:Core/thread_sample/thread_sample.c **** static char thread2_stack[1024];
  23:Core/thread_sample/thread_sample.c **** static struct rt_thread thread2;
ARM GAS  C:\Users\GKQ\AppData\Local\Temp\ccKrnMFN.s 			page 2


  24:Core/thread_sample/thread_sample.c **** 
  25:Core/thread_sample/thread_sample.c **** /*线程2入口函数*/
  26:Core/thread_sample/thread_sample.c **** static void thread2_entry(void *param)
  27:Core/thread_sample/thread_sample.c **** {
  28:Core/thread_sample/thread_sample.c ****     rt_uint32_t count = 0;
  29:Core/thread_sample/thread_sample.c ****     /*线程2拥有高优先级，以抢占线程1而获得执行*/
  30:Core/thread_sample/thread_sample.c ****     for (count = 0; count < 10; count++)
  31:Core/thread_sample/thread_sample.c ****     {
  32:Core/thread_sample/thread_sample.c ****         /*线程2打印计数值*/
  33:Core/thread_sample/thread_sample.c ****         rt_kprintf("thread2 count:%d\n", count);
  34:Core/thread_sample/thread_sample.c **** 
  35:Core/thread_sample/thread_sample.c ****     }
  36:Core/thread_sample/thread_sample.c ****     rt_kprintf("thread2 exit\n");
  37:Core/thread_sample/thread_sample.c ****     /*线程2运行结束后也将自动被系统脱离*/
  38:Core/thread_sample/thread_sample.c **** }
  39:Core/thread_sample/thread_sample.c **** 
  40:Core/thread_sample/thread_sample.c **** /*例程代码，其中创建了线程 thread1，初始化了线程 thread2，并将函数使用 MS
  41:Core/thread_sample/thread_sample.c **** int thread_sample(void)
  42:Core/thread_sample/thread_sample.c **** {
  34              		.loc 1 42 1 view -0
  35              		.cfi_startproc
  36              		@ args = 0, pretend = 0, frame = 0
  37              		@ frame_needed = 0, uses_anonymous_args = 0
  38 0000 10B5     		push	{r4, lr}
  39              	.LCFI0:
  40              		.cfi_def_cfa_offset 8
  41              		.cfi_offset 4, -8
  42              		.cfi_offset 14, -4
  43 0002 84B0     		sub	sp, sp, #16
  44              	.LCFI1:
  45              		.cfi_def_cfa_offset 24
  43:Core/thread_sample/thread_sample.c ****     /* 创建线程 1，名称是 thread1，入口是 thread1_entry*/
  44:Core/thread_sample/thread_sample.c ****     tid1 = rt_thread_create("thread1",
  46              		.loc 1 44 5 view .LVU1
  47              		.loc 1 44 12 is_stmt 0 view .LVU2
  48 0004 0523     		movs	r3, #5
  49 0006 0193     		str	r3, [sp, #4]
  50 0008 1923     		movs	r3, #25
  51 000a 0093     		str	r3, [sp]
  52 000c 4FF40073 		mov	r3, #512
  53 0010 0022     		movs	r2, #0
  54 0012 0E49     		ldr	r1, .L4
  55 0014 0E48     		ldr	r0, .L4+4
  56 0016 FFF7FEFF 		bl	rt_thread_create
  57              	.LVL0:
  45:Core/thread_sample/thread_sample.c ****                             thread1_entry,
  46:Core/thread_sample/thread_sample.c ****                             RT_NULL,
  47:Core/thread_sample/thread_sample.c ****                             THREAD_STACK_SIZE,
  48:Core/thread_sample/thread_sample.c ****                             THREAD_PRIORITY,
  49:Core/thread_sample/thread_sample.c ****                             THREAD_TIMESLICE);
  50:Core/thread_sample/thread_sample.c ****                             if (tid1 != RT_NULL)
  58              		.loc 1 50 29 is_stmt 1 view .LVU3
  59              		.loc 1 50 32 is_stmt 0 view .LVU4
  60 001a 08B1     		cbz	r0, .L2
  51:Core/thread_sample/thread_sample.c ****                             {
  52:Core/thread_sample/thread_sample.c ****                                 rt_thread_startup(tid1);
  61              		.loc 1 52 33 is_stmt 1 view .LVU5
ARM GAS  C:\Users\GKQ\AppData\Local\Temp\ccKrnMFN.s 			page 3


  62 001c FFF7FEFF 		bl	rt_thread_startup
  63              	.LVL1:
  64              	.L2:
  53:Core/thread_sample/thread_sample.c ****                             }
  54:Core/thread_sample/thread_sample.c ****                             /* 初始化线程 2，名称是 thread2，入口是 thread2_entry */
  55:Core/thread_sample/thread_sample.c ****                             rt_thread_init(&thread2,
  65              		.loc 1 55 29 view .LVU6
  66 0020 0C4C     		ldr	r4, .L4+8
  67 0022 0523     		movs	r3, #5
  68 0024 0393     		str	r3, [sp, #12]
  69 0026 1823     		movs	r3, #24
  70 0028 0293     		str	r3, [sp, #8]
  71 002a 4FF48063 		mov	r3, #1024
  72 002e 0193     		str	r3, [sp, #4]
  73 0030 094B     		ldr	r3, .L4+12
  74 0032 0093     		str	r3, [sp]
  75 0034 0023     		movs	r3, #0
  76 0036 094A     		ldr	r2, .L4+16
  77 0038 0949     		ldr	r1, .L4+20
  78 003a 2046     		mov	r0, r4
  79 003c FFF7FEFF 		bl	rt_thread_init
  80              	.LVL2:
  56:Core/thread_sample/thread_sample.c ****                                            "thread2",
  57:Core/thread_sample/thread_sample.c ****                                            thread2_entry,
  58:Core/thread_sample/thread_sample.c ****                                            RT_NULL,
  59:Core/thread_sample/thread_sample.c ****                                            &thread2_stack[0],
  60:Core/thread_sample/thread_sample.c ****                                            sizeof(thread2_stack),
  61:Core/thread_sample/thread_sample.c ****                                            THREAD_PRIORITY - 1,
  62:Core/thread_sample/thread_sample.c ****                                            THREAD_TIMESLICE);
  63:Core/thread_sample/thread_sample.c ****                             rt_thread_startup(&thread2);
  81              		.loc 1 63 29 view .LVU7
  82 0040 2046     		mov	r0, r4
  83 0042 FFF7FEFF 		bl	rt_thread_startup
  84              	.LVL3:
  64:Core/thread_sample/thread_sample.c ****                             return 0;
  85              		.loc 1 64 29 view .LVU8
  65:Core/thread_sample/thread_sample.c **** }
  86              		.loc 1 65 1 is_stmt 0 view .LVU9
  87 0046 0020     		movs	r0, #0
  88 0048 04B0     		add	sp, sp, #16
  89              	.LCFI2:
  90              		.cfi_def_cfa_offset 8
  91              		@ sp needed
  92 004a 10BD     		pop	{r4, pc}
  93              	.L5:
  94              		.align	2
  95              	.L4:
  96 004c 00000000 		.word	thread1_entry
  97 0050 00000000 		.word	.LC0
  98 0054 00000000 		.word	.LANCHOR0
  99 0058 00000000 		.word	.LANCHOR1
 100 005c 00000000 		.word	thread2_entry
 101 0060 08000000 		.word	.LC1
 102              		.cfi_endproc
 103              	.LFE17:
 105              		.section	.rodata.thread2_entry.str1.4,"aMS",%progbits,1
 106              		.align	2
ARM GAS  C:\Users\GKQ\AppData\Local\Temp\ccKrnMFN.s 			page 4


 107              	.LC2:
 108 0000 74687265 		.ascii	"thread2 count:%d\012\000"
 108      61643220 
 108      636F756E 
 108      743A2564 
 108      0A00
 109 0012 0000     		.align	2
 110              	.LC3:
 111 0014 74687265 		.ascii	"thread2 exit\012\000"
 111      61643220 
 111      65786974 
 111      0A00
 112              		.section	.text.thread2_entry,"ax",%progbits
 113              		.align	1
 114              		.syntax unified
 115              		.thumb
 116              		.thumb_func
 117              		.fpu softvfp
 119              	thread2_entry:
 120              	.LVL4:
 121              	.LFB16:
  27:Core/thread_sample/thread_sample.c ****     rt_uint32_t count = 0;
 122              		.loc 1 27 1 is_stmt 1 view -0
 123              		.cfi_startproc
 124              		@ args = 0, pretend = 0, frame = 0
 125              		@ frame_needed = 0, uses_anonymous_args = 0
  27:Core/thread_sample/thread_sample.c ****     rt_uint32_t count = 0;
 126              		.loc 1 27 1 is_stmt 0 view .LVU11
 127 0000 10B5     		push	{r4, lr}
 128              	.LCFI3:
 129              		.cfi_def_cfa_offset 8
 130              		.cfi_offset 4, -8
 131              		.cfi_offset 14, -4
  28:Core/thread_sample/thread_sample.c ****     /*线程2拥有高优先级，以抢占线程1而获得执行*/
 132              		.loc 1 28 5 is_stmt 1 view .LVU12
 133              	.LVL5:
  30:Core/thread_sample/thread_sample.c ****     {
 134              		.loc 1 30 5 view .LVU13
  30:Core/thread_sample/thread_sample.c ****     {
 135              		.loc 1 30 16 is_stmt 0 view .LVU14
 136 0002 0024     		movs	r4, #0
 137              	.LVL6:
 138              	.L7:
  30:Core/thread_sample/thread_sample.c ****     {
 139              		.loc 1 30 21 is_stmt 1 discriminator 1 view .LVU15
  30:Core/thread_sample/thread_sample.c ****     {
 140              		.loc 1 30 5 is_stmt 0 discriminator 1 view .LVU16
 141 0004 092C     		cmp	r4, #9
 142 0006 05D8     		bhi	.L10
  33:Core/thread_sample/thread_sample.c **** 
 143              		.loc 1 33 9 is_stmt 1 discriminator 3 view .LVU17
 144 0008 2146     		mov	r1, r4
 145 000a 0448     		ldr	r0, .L11
 146 000c FFF7FEFF 		bl	rt_kprintf
 147              	.LVL7:
  30:Core/thread_sample/thread_sample.c ****     {
 148              		.loc 1 30 33 discriminator 3 view .LVU18
ARM GAS  C:\Users\GKQ\AppData\Local\Temp\ccKrnMFN.s 			page 5


  30:Core/thread_sample/thread_sample.c ****     {
 149              		.loc 1 30 38 is_stmt 0 discriminator 3 view .LVU19
 150 0010 0134     		adds	r4, r4, #1
 151              	.LVL8:
  30:Core/thread_sample/thread_sample.c ****     {
 152              		.loc 1 30 38 discriminator 3 view .LVU20
 153 0012 F7E7     		b	.L7
 154              	.L10:
  36:Core/thread_sample/thread_sample.c ****     /*线程2运行结束后也将自动被系统脱离*/
 155              		.loc 1 36 5 is_stmt 1 view .LVU21
 156 0014 0248     		ldr	r0, .L11+4
 157 0016 FFF7FEFF 		bl	rt_kprintf
 158              	.LVL9:
  38:Core/thread_sample/thread_sample.c **** 
 159              		.loc 1 38 1 is_stmt 0 view .LVU22
 160 001a 10BD     		pop	{r4, pc}
 161              	.LVL10:
 162              	.L12:
  38:Core/thread_sample/thread_sample.c **** 
 163              		.loc 1 38 1 view .LVU23
 164              		.align	2
 165              	.L11:
 166 001c 00000000 		.word	.LC2
 167 0020 14000000 		.word	.LC3
 168              		.cfi_endproc
 169              	.LFE16:
 171              		.section	.rodata.thread1_entry.str1.4,"aMS",%progbits,1
 172              		.align	2
 173              	.LC4:
 174 0000 74687265 		.ascii	"thread1 count:%d\012\000"
 174      61643120 
 174      636F756E 
 174      743A2564 
 174      0A00
 175              		.section	.text.thread1_entry,"ax",%progbits
 176              		.align	1
 177              		.syntax unified
 178              		.thumb
 179              		.thumb_func
 180              		.fpu softvfp
 182              	thread1_entry:
 183              	.LVL11:
 184              	.LFB15:
  10:Core/thread_sample/thread_sample.c ****     rt_uint32_t count = 0;
 185              		.loc 1 10 1 is_stmt 1 view -0
 186              		.cfi_startproc
 187              		@ args = 0, pretend = 0, frame = 0
 188              		@ frame_needed = 0, uses_anonymous_args = 0
  10:Core/thread_sample/thread_sample.c ****     rt_uint32_t count = 0;
 189              		.loc 1 10 1 is_stmt 0 view .LVU25
 190 0000 10B5     		push	{r4, lr}
 191              	.LCFI4:
 192              		.cfi_def_cfa_offset 8
 193              		.cfi_offset 4, -8
 194              		.cfi_offset 14, -4
  11:Core/thread_sample/thread_sample.c ****     while (1)
 195              		.loc 1 11 5 is_stmt 1 view .LVU26
ARM GAS  C:\Users\GKQ\AppData\Local\Temp\ccKrnMFN.s 			page 6


 196              	.LVL12:
  11:Core/thread_sample/thread_sample.c ****     while (1)
 197              		.loc 1 11 17 is_stmt 0 view .LVU27
 198 0002 0021     		movs	r1, #0
 199              	.LVL13:
 200              	.L14:
  12:Core/thread_sample/thread_sample.c ****     {
 201              		.loc 1 12 5 is_stmt 1 discriminator 1 view .LVU28
  15:Core/thread_sample/thread_sample.c ****         rt_thread_mdelay(500);
 202              		.loc 1 15 9 discriminator 1 view .LVU29
 203 0004 4C1C     		adds	r4, r1, #1
 204              	.LVL14:
  15:Core/thread_sample/thread_sample.c ****         rt_thread_mdelay(500);
 205              		.loc 1 15 9 is_stmt 0 discriminator 1 view .LVU30
 206 0006 0448     		ldr	r0, .L16
 207 0008 FFF7FEFF 		bl	rt_kprintf
 208              	.LVL15:
  16:Core/thread_sample/thread_sample.c ****     }
 209              		.loc 1 16 9 is_stmt 1 discriminator 1 view .LVU31
 210 000c 4FF4FA70 		mov	r0, #500
 211 0010 FFF7FEFF 		bl	rt_thread_mdelay
 212              	.LVL16:
  12:Core/thread_sample/thread_sample.c ****     {
 213              		.loc 1 12 11 discriminator 1 view .LVU32
  15:Core/thread_sample/thread_sample.c ****         rt_thread_mdelay(500);
 214              		.loc 1 15 9 is_stmt 0 discriminator 1 view .LVU33
 215 0014 2146     		mov	r1, r4
 216 0016 F5E7     		b	.L14
 217              	.L17:
 218              		.align	2
 219              	.L16:
 220 0018 00000000 		.word	.LC4
 221              		.cfi_endproc
 222              	.LFE15:
 224              		.global	__fsym___cmd_thread_sample
 225              		.global	__fsym___cmd_thread_sample_name
 226              		.section	.bss.thread2,"aw",%nobits
 227              		.align	2
 228              		.set	.LANCHOR0,. + 0
 231              	thread2:
 232 0000 00000000 		.space	120
 232      00000000 
 232      00000000 
 232      00000000 
 232      00000000 
 233              		.section	.bss.thread2_stack,"aw",%nobits
 234              		.align	2
 235              		.set	.LANCHOR1,. + 0
 238              	thread2_stack:
 239 0000 00000000 		.space	1024
 239      00000000 
 239      00000000 
 239      00000000 
 239      00000000 
 240              		.section	.rodata.__fsym___cmd_thread_sample_name,"a"
 241              		.align	2
 244              	__fsym___cmd_thread_sample_name:
ARM GAS  C:\Users\GKQ\AppData\Local\Temp\ccKrnMFN.s 			page 7


 245 0000 5F5F636D 		.ascii	"__cmd_thread_sample\000"
 245      645F7468 
 245      72656164 
 245      5F73616D 
 245      706C6500 
 246              		.section	FSymTab,"a"
 247              		.align	2
 250              	__fsym___cmd_thread_sample:
 251 0000 00000000 		.word	__fsym___cmd_thread_sample_name
 252 0004 00000000 		.word	thread_sample
 253              		.text
 254              	.Letext0:
 255              		.file 2 "Middlewares/Third_Party/RealThread_RTOS_RT-Thread/include/rtdef.h"
 256              		.file 3 "Middlewares/Third_Party/RealThread_RTOS_RT-Thread/components/finsh/finsh_api.h"
 257              		.file 4 "Middlewares/Third_Party/RealThread_RTOS_RT-Thread/include/rtthread.h"
ARM GAS  C:\Users\GKQ\AppData\Local\Temp\ccKrnMFN.s 			page 8

