ARM GAS  C:\Users\GKQ\AppData\Local\Temp\ccR7NUtN.s 			page 1


   1              		.cpu cortex-m3
   2              		.eabi_attribute 20, 1
   3              		.eabi_attribute 21, 1
   4              		.eabi_attribute 23, 3
   5              		.eabi_attribute 24, 1
   6              		.eabi_attribute 25, 1
   7              		.eabi_attribute 26, 1
   8              		.eabi_attribute 30, 1
   9              		.eabi_attribute 34, 1
  10              		.eabi_attribute 18, 4
  11              		.file	"timer_sample.c"
  12              		.text
  13              	.Ltext0:
  14              		.cfi_sections	.debug_frame
  15              		.section	.rodata.timer_sample.str1.4,"aMS",%progbits,1
  16              		.align	2
  17              	.LC0:
  18 0000 74696D65 		.ascii	"timer1\000"
  18      723100
  19 0007 00       		.align	2
  20              	.LC1:
  21 0008 74696D65 		.ascii	"timer2\000"
  21      723200
  22              		.section	.text.timer_sample,"ax",%progbits
  23              		.align	1
  24              		.global	timer_sample
  25              		.arch armv7-m
  26              		.syntax unified
  27              		.thumb
  28              		.thumb_func
  29              		.fpu softvfp
  31              	timer_sample:
  32              	.LFB17:
  33              		.file 1 "Core/thread_sample/timer_sample.c"
   1:Core/thread_sample/timer_sample.c **** #include "rtthread.h"
   2:Core/thread_sample/timer_sample.c **** 
   3:Core/thread_sample/timer_sample.c **** /* ÂÆöÊó∂Âô®ÁöÑÊéßÂà∂Âùó */
   4:Core/thread_sample/timer_sample.c **** static rt_time_t timer1;
   5:Core/thread_sample/timer_sample.c **** static rt_time_t timer2;
   6:Core/thread_sample/timer_sample.c **** static int cnt = 0;
   7:Core/thread_sample/timer_sample.c **** 
   8:Core/thread_sample/timer_sample.c **** /*Âë®ÊúüÂÆöÊó∂Âô® timer1 ÁöÑË∂ÖÊó∂ÂáΩÊï∞Ôºåtimer1 ÂÆöÊó∂Êó∂Èó¥Âà∞‰ºöÊâßË°åÊ¨°ÂáΩÊï∞Ôºå10 Ê¨°‰πãÂêéÂ
   9:Core/thread_sample/timer_sample.c **** static void timeout1(void *parameter)
  10:Core/thread_sample/timer_sample.c **** {
  11:Core/thread_sample/timer_sample.c ****     rt_kprintf("periodic timer is timeout %d\n", cnt);
  12:Core/thread_sample/timer_sample.c ****     /* ËøêË°åÁ¨¨ 10 Ê¨°ÔºåÂÅúÊ≠¢Âë®ÊúüÂÆöÊó∂Âô® */
  13:Core/thread_sample/timer_sample.c ****     if (cnt++ >= 9)
  14:Core/thread_sample/timer_sample.c ****     {
  15:Core/thread_sample/timer_sample.c ****         rt_timer_stop(timer1);
  16:Core/thread_sample/timer_sample.c ****         rt_kprintf("periodic timer was stopped! \n");
  17:Core/thread_sample/timer_sample.c ****     }
  18:Core/thread_sample/timer_sample.c **** }
  19:Core/thread_sample/timer_sample.c **** static void timeout2(void *parameter)
  20:Core/thread_sample/timer_sample.c **** {
  21:Core/thread_sample/timer_sample.c ****     rt_kprintf("one shot timer is timeout\n");
  22:Core/thread_sample/timer_sample.c **** }
  23:Core/thread_sample/timer_sample.c **** 
ARM GAS  C:\Users\GKQ\AppData\Local\Temp\ccR7NUtN.s 			page 2


  24:Core/thread_sample/timer_sample.c **** int timer_sample(void)
  25:Core/thread_sample/timer_sample.c **** {
  34              		.loc 1 25 1 view -0
  35              		.cfi_startproc
  36              		@ args = 0, pretend = 0, frame = 0
  37              		@ frame_needed = 0, uses_anonymous_args = 0
  38 0000 00B5     		push	{lr}
  39              	.LCFI0:
  40              		.cfi_def_cfa_offset 4
  41              		.cfi_offset 14, -4
  42 0002 83B0     		sub	sp, sp, #12
  43              	.LCFI1:
  44              		.cfi_def_cfa_offset 16
  26:Core/thread_sample/timer_sample.c ****     /* ÂàõÂª∫ÂÆöÊó∂Âô® 1 Âë®ÊúüÂÆöÊó∂Âô® */
  27:Core/thread_sample/timer_sample.c ****     timer1 = rt_timer_create("timer1",
  45              		.loc 1 27 5 view .LVU1
  46              		.loc 1 27 14 is_stmt 0 view .LVU2
  47 0004 0223     		movs	r3, #2
  48 0006 0093     		str	r3, [sp]
  49 0008 0A23     		movs	r3, #10
  50 000a 0022     		movs	r2, #0
  51 000c 0B49     		ldr	r1, .L7
  52 000e 0C48     		ldr	r0, .L7+4
  53 0010 FFF7FEFF 		bl	rt_timer_create
  54              	.LVL0:
  55              		.loc 1 27 12 view .LVU3
  56 0014 0B4B     		ldr	r3, .L7+8
  57 0016 1860     		str	r0, [r3]
  28:Core/thread_sample/timer_sample.c ****                              timeout1,
  29:Core/thread_sample/timer_sample.c ****                              RT_NULL,
  30:Core/thread_sample/timer_sample.c ****                              10,
  31:Core/thread_sample/timer_sample.c ****                              RT_TIMER_FLAG_PERIODIC);
  32:Core/thread_sample/timer_sample.c ****     if (timer1 != RT_NULL)
  58              		.loc 1 32 5 is_stmt 1 view .LVU4
  59              		.loc 1 32 8 is_stmt 0 view .LVU5
  60 0018 50B9     		cbnz	r0, .L5
  61              	.L2:
  33:Core/thread_sample/timer_sample.c ****     {
  34:Core/thread_sample/timer_sample.c ****         rt_timer_start(timer1);
  35:Core/thread_sample/timer_sample.c ****     }
  36:Core/thread_sample/timer_sample.c **** 
  37:Core/thread_sample/timer_sample.c ****     /* ÂàõÂª∫ÂÆöÊó∂Âô® 2 Âë®ÊúüÂÆöÊó∂Âô® */
  38:Core/thread_sample/timer_sample.c ****     timer2 = rt_timer_create("timer2",
  62              		.loc 1 38 5 is_stmt 1 view .LVU6
  63              		.loc 1 38 14 is_stmt 0 view .LVU7
  64 001a 0022     		movs	r2, #0
  65 001c 0092     		str	r2, [sp]
  66 001e 1E23     		movs	r3, #30
  67 0020 0949     		ldr	r1, .L7+12
  68 0022 0A48     		ldr	r0, .L7+16
  69 0024 FFF7FEFF 		bl	rt_timer_create
  70              	.LVL1:
  39:Core/thread_sample/timer_sample.c ****                              timeout2,
  40:Core/thread_sample/timer_sample.c ****                              RT_NULL,
  41:Core/thread_sample/timer_sample.c ****                              30,
  42:Core/thread_sample/timer_sample.c ****                              RT_TIMER_FLAG_ONE_SHOT);
  43:Core/thread_sample/timer_sample.c ****     if (timer2 != RT_NULL)
ARM GAS  C:\Users\GKQ\AppData\Local\Temp\ccR7NUtN.s 			page 3


  71              		.loc 1 43 5 is_stmt 1 view .LVU8
  72              		.loc 1 43 8 is_stmt 0 view .LVU9
  73 0028 28B9     		cbnz	r0, .L6
  74              	.L3:
  44:Core/thread_sample/timer_sample.c ****     {
  45:Core/thread_sample/timer_sample.c ****         rt_timer_start(timer2);
  46:Core/thread_sample/timer_sample.c ****     }
  47:Core/thread_sample/timer_sample.c **** }
  75              		.loc 1 47 1 view .LVU10
  76 002a 03B0     		add	sp, sp, #12
  77              	.LCFI2:
  78              		.cfi_remember_state
  79              		.cfi_def_cfa_offset 4
  80              		@ sp needed
  81 002c 5DF804FB 		ldr	pc, [sp], #4
  82              	.L5:
  83              	.LCFI3:
  84              		.cfi_restore_state
  34:Core/thread_sample/timer_sample.c ****     }
  85              		.loc 1 34 9 is_stmt 1 view .LVU11
  86 0030 FFF7FEFF 		bl	rt_timer_start
  87              	.LVL2:
  88 0034 F1E7     		b	.L2
  89              	.L6:
  45:Core/thread_sample/timer_sample.c ****     }
  90              		.loc 1 45 9 view .LVU12
  91 0036 FFF7FEFF 		bl	rt_timer_start
  92              	.LVL3:
  93 003a F6E7     		b	.L3
  94              	.L8:
  95              		.align	2
  96              	.L7:
  97 003c 00000000 		.word	timeout1
  98 0040 00000000 		.word	.LC0
  99 0044 00000000 		.word	.LANCHOR0
 100 0048 00000000 		.word	timeout2
 101 004c 08000000 		.word	.LC1
 102              		.cfi_endproc
 103              	.LFE17:
 105              		.section	.rodata.timeout2.str1.4,"aMS",%progbits,1
 106              		.align	2
 107              	.LC2:
 108 0000 6F6E6520 		.ascii	"one shot timer is timeout\012\000"
 108      73686F74 
 108      2074696D 
 108      65722069 
 108      73207469 
 109              		.section	.text.timeout2,"ax",%progbits
 110              		.align	1
 111              		.syntax unified
 112              		.thumb
 113              		.thumb_func
 114              		.fpu softvfp
 116              	timeout2:
 117              	.LVL4:
 118              	.LFB16:
  20:Core/thread_sample/timer_sample.c ****     rt_kprintf("one shot timer is timeout\n");
ARM GAS  C:\Users\GKQ\AppData\Local\Temp\ccR7NUtN.s 			page 4


 119              		.loc 1 20 1 view -0
 120              		.cfi_startproc
 121              		@ args = 0, pretend = 0, frame = 0
 122              		@ frame_needed = 0, uses_anonymous_args = 0
  20:Core/thread_sample/timer_sample.c ****     rt_kprintf("one shot timer is timeout\n");
 123              		.loc 1 20 1 is_stmt 0 view .LVU14
 124 0000 08B5     		push	{r3, lr}
 125              	.LCFI4:
 126              		.cfi_def_cfa_offset 8
 127              		.cfi_offset 3, -8
 128              		.cfi_offset 14, -4
  21:Core/thread_sample/timer_sample.c **** }
 129              		.loc 1 21 5 is_stmt 1 view .LVU15
 130 0002 0248     		ldr	r0, .L11
 131              	.LVL5:
  21:Core/thread_sample/timer_sample.c **** }
 132              		.loc 1 21 5 is_stmt 0 view .LVU16
 133 0004 FFF7FEFF 		bl	rt_kprintf
 134              	.LVL6:
  22:Core/thread_sample/timer_sample.c **** 
 135              		.loc 1 22 1 view .LVU17
 136 0008 08BD     		pop	{r3, pc}
 137              	.L12:
 138 000a 00BF     		.align	2
 139              	.L11:
 140 000c 00000000 		.word	.LC2
 141              		.cfi_endproc
 142              	.LFE16:
 144              		.section	.rodata.timeout1.str1.4,"aMS",%progbits,1
 145              		.align	2
 146              	.LC3:
 147 0000 70657269 		.ascii	"periodic timer is timeout %d\012\000"
 147      6F646963 
 147      2074696D 
 147      65722069 
 147      73207469 
 148 001e 0000     		.align	2
 149              	.LC4:
 150 0020 70657269 		.ascii	"periodic timer was stopped! \012\000"
 150      6F646963 
 150      2074696D 
 150      65722077 
 150      61732073 
 151              		.section	.text.timeout1,"ax",%progbits
 152              		.align	1
 153              		.syntax unified
 154              		.thumb
 155              		.thumb_func
 156              		.fpu softvfp
 158              	timeout1:
 159              	.LVL7:
 160              	.LFB15:
  10:Core/thread_sample/timer_sample.c ****     rt_kprintf("periodic timer is timeout %d\n", cnt);
 161              		.loc 1 10 1 is_stmt 1 view -0
 162              		.cfi_startproc
 163              		@ args = 0, pretend = 0, frame = 0
 164              		@ frame_needed = 0, uses_anonymous_args = 0
ARM GAS  C:\Users\GKQ\AppData\Local\Temp\ccR7NUtN.s 			page 5


  10:Core/thread_sample/timer_sample.c ****     rt_kprintf("periodic timer is timeout %d\n", cnt);
 165              		.loc 1 10 1 is_stmt 0 view .LVU19
 166 0000 10B5     		push	{r4, lr}
 167              	.LCFI5:
 168              		.cfi_def_cfa_offset 8
 169              		.cfi_offset 4, -8
 170              		.cfi_offset 14, -4
  11:Core/thread_sample/timer_sample.c ****     /* ËøêË°åÁ¨¨ 10 Ê¨°ÔºåÂÅúÊ≠¢Âë®ÊúüÂÆöÊó∂Âô® */
 171              		.loc 1 11 5 is_stmt 1 view .LVU20
 172 0002 094C     		ldr	r4, .L17
 173 0004 2168     		ldr	r1, [r4]
 174 0006 0948     		ldr	r0, .L17+4
 175              	.LVL8:
  11:Core/thread_sample/timer_sample.c ****     /* ËøêË°åÁ¨¨ 10 Ê¨°ÔºåÂÅúÊ≠¢Âë®ÊúüÂÆöÊó∂Âô® */
 176              		.loc 1 11 5 is_stmt 0 view .LVU21
 177 0008 FFF7FEFF 		bl	rt_kprintf
 178              	.LVL9:
  13:Core/thread_sample/timer_sample.c ****     {
 179              		.loc 1 13 5 is_stmt 1 view .LVU22
  13:Core/thread_sample/timer_sample.c ****     {
 180              		.loc 1 13 12 is_stmt 0 view .LVU23
 181 000c 2368     		ldr	r3, [r4]
 182 000e 5A1C     		adds	r2, r3, #1
 183 0010 2260     		str	r2, [r4]
  13:Core/thread_sample/timer_sample.c ****     {
 184              		.loc 1 13 8 view .LVU24
 185 0012 082B     		cmp	r3, #8
 186 0014 00DC     		bgt	.L16
 187              	.L13:
  18:Core/thread_sample/timer_sample.c **** static void timeout2(void *parameter)
 188              		.loc 1 18 1 view .LVU25
 189 0016 10BD     		pop	{r4, pc}
 190              	.L16:
  15:Core/thread_sample/timer_sample.c ****         rt_kprintf("periodic timer was stopped! \n");
 191              		.loc 1 15 9 is_stmt 1 view .LVU26
 192 0018 054B     		ldr	r3, .L17+8
 193 001a 1868     		ldr	r0, [r3]
 194 001c FFF7FEFF 		bl	rt_timer_stop
 195              	.LVL10:
  16:Core/thread_sample/timer_sample.c ****     }
 196              		.loc 1 16 9 view .LVU27
 197 0020 0448     		ldr	r0, .L17+12
 198 0022 FFF7FEFF 		bl	rt_kprintf
 199              	.LVL11:
  18:Core/thread_sample/timer_sample.c **** static void timeout2(void *parameter)
 200              		.loc 1 18 1 is_stmt 0 view .LVU28
 201 0026 F6E7     		b	.L13
 202              	.L18:
 203              		.align	2
 204              	.L17:
 205 0028 00000000 		.word	.LANCHOR1
 206 002c 00000000 		.word	.LC3
 207 0030 00000000 		.word	.LANCHOR0
 208 0034 20000000 		.word	.LC4
 209              		.cfi_endproc
 210              	.LFE15:
 212              		.global	__fsym___cmd_timer_sample
ARM GAS  C:\Users\GKQ\AppData\Local\Temp\ccR7NUtN.s 			page 6


 213              		.global	__fsym___cmd_timer_sample_name
 214              		.section	.bss.cnt,"aw",%nobits
 215              		.align	2
 216              		.set	.LANCHOR1,. + 0
 219              	cnt:
 220 0000 00000000 		.space	4
 221              		.section	.bss.timer1,"aw",%nobits
 222              		.align	2
 223              		.set	.LANCHOR0,. + 0
 226              	timer1:
 227 0000 00000000 		.space	4
 228              		.section	.rodata.__fsym___cmd_timer_sample_name,"a"
 229              		.align	2
 232              	__fsym___cmd_timer_sample_name:
 233 0000 5F5F636D 		.ascii	"__cmd_timer_sample\000"
 233      645F7469 
 233      6D65725F 
 233      73616D70 
 233      6C6500
 234              		.section	FSymTab,"a"
 235              		.align	2
 238              	__fsym___cmd_timer_sample:
 239 0000 00000000 		.word	__fsym___cmd_timer_sample_name
 240 0004 00000000 		.word	timer_sample
 241              		.text
 242              	.Letext0:
 243              		.file 2 "Middlewares/Third_Party/RealThread_RTOS_RT-Thread/include/rtdef.h"
 244              		.file 3 "Middlewares/Third_Party/RealThread_RTOS_RT-Thread/components/finsh/finsh_api.h"
 245              		.file 4 "Middlewares/Third_Party/RealThread_RTOS_RT-Thread/include/rtthread.h"
ARM GAS  C:\Users\GKQ\AppData\Local\Temp\ccR7NUtN.s 			page 7

